(dp1
I677
ccollections
defaultdict
p2
(c__builtin__
list
p3
tRp4
S'Bounty Hunter'
p5
(lp6
(S'Rubick'
p7
F-0.045999999999999999
cnumpy.core.multiarray
scalar
p8
(cnumpy
dtype
p9
(S'b1'
I0
I1
tRp10
(I3
S'|'
NNNI-1
I-1
I0
tbS'\x00'
tRp11
tp12
a(S'Lifestealer'
p13
F0.041000000000000002
g11
tp14
a(S'Shadow Demon'
p15
F-0.125
g11
tp16
a(S'Keeper of the Light'
p17
F-0.041000000000000002
g11
tp18
asS'Juggernaut'
p19
(lp20
(g7
F0.074999999999999997
g11
tp21
a(g15
F-0.012
g11
tp22
a(S'Lone Druid'
p23
F-0.021999999999999999
g11
tp24
a(S'Magnus'
p25
F-0.002
g11
tp26
a(S'Nyx Assassin'
p27
F-0.121
g11
tp28
a(g17
F0.096000000000000002
g11
tp29
asg25
(lp30
(S'Rubick'
p31
F-0.021999999999999999
g11
tp32
a(S'Shadow Demon'
p33
F-0.039
g11
tp34
a(S'Gyrocopter'
p35
F0.012
g11
tp36
a(S'Lone Druid'
p37
F0.035999999999999997
g11
tp38
a(S'Keeper of the Light'
p39
F0.051999999999999998
g11
tp40
a(S'Leshrac'
p41
F0.051999999999999998
g11
tp42
a(g13
F0.035999999999999997
g11
tp43
a(S"Nature's Prophet"
F0.10299999999999999
g8
(g10
S'\x01'
tRp44
tp45
a(S'Bane'
p46
F0.028000000000000001
g11
tp47
a(S'Anti-Mage'
F0.031
g11
tp48
a(S'Dark Seer'
p49
F-0.042000000000000003
g11
tp50
a(S'Lina'
p51
F-0.096000000000000002
g44
tp52
a(S'Jakiro'
p53
F-0.031
g11
tp54
a(S'Nyx Assassin'
p55
F0.035999999999999997
g11
tp56
a(S'Luna'
p57
F0.023
g11
tp58
a(S'Phantom Lancer'
p59
F-0.012999999999999999
g11
tp60
a(S'Chen'
p61
F0.085000000000000006
g11
tp62
a(S'Queen of Pain'
p63
F-0.049000000000000002
g11
tp64
a(S'Clockwerk'
p65
F0.012
g11
tp66
a(S'Windranger'
p67
F0.123
g44
tp68
a(g19
F-0.012
g11
tp69
a(S'Sand King'
p70
F-0.023
g11
tp71
a(S'Weaver'
p72
F-0.0060000000000000001
g11
tp73
a(S'Alchemist'
p74
F-0.068000000000000005
g11
tp75
a(S'Faceless Void'
p76
F0.027
g11
tp77
a(S'Batrider'
p78
F-0.037999999999999999
g11
tp79
a(S'Io'
p80
F0.069000000000000006
g11
tp81
a(S'Puck'
p82
F-0.14599999999999999
g44
tp83
a(S'Templar Assassin'
p84
F-0.014
g11
tp85
asS'Undying'
p86
(lp87
(g35
F0.060999999999999999
g11
tp88
asS'Dragon Knight'
p89
(lp90
(g15
F-0.035000000000000003
g11
tp91
a(g7
F-0.028000000000000001
g11
tp92
a(S'Dark Seer'
p93
F-0.11
g11
tp94
asS'Tinker'
p95
(lp96
(g15
F0.042000000000000003
g11
tp97
asg63
(lp98
(g7
F-0.012
g11
tp99
a(g15
F-0.065000000000000002
g11
tp100
a(S'Lifestealer'
p101
F0.091999999999999998
g44
tp102
a(g17
F0.027
g11
tp103
a(g27
F-0.021999999999999999
g11
tp104
a(g93
F-0.065000000000000002
g11
tp105
a(S'Gyrocopter'
p106
F-0.017000000000000001
g11
tp107
a(g23
F0.029000000000000001
g11
tp108
a(S"Nature's Prophet"
F0.036999999999999998
g11
tp109
a(S'Leshrac'
p110
F-0.0060000000000000001
g11
tp111
a(g25
F-0.062
g11
tp112
a(g46
F0.11
g11
tp113
a(S'Clockwerk'
p114
F0.047
g11
tp115
a(S'Io'
p116
F-0.021000000000000001
g11
tp117
a(g51
F0.0050000000000000001
g11
tp118
a(S'Weaver'
p119
F-0.085999999999999993
g11
tp120
a(g70
F0.068000000000000005
g11
tp121
a(S'Chaos Knight'
p122
F-0.025000000000000001
g11
tp123
a(S'Jakiro'
p124
F-0.071999999999999995
g11
tp125
a(S'Luna'
p126
F0.123
g11
tp127
a(g59
F-0.041000000000000002
g11
tp128
asS'Storm Spirit'
p129
(lp130
(g101
F0.056000000000000001
g11
tp131
a(g17
F0.037999999999999999
g11
tp132
a(g7
F0.021999999999999999
g11
tp133
a(g27
F0.019
g11
tp134
a(g15
F-0.066000000000000003
g11
tp135
asS"Nature's Prophet"
p136
(lp137
(g7
F0.025000000000000001
g11
tp138
a(g25
F0.0030000000000000001
g11
tp139
a(g106
F0.053999999999999999
g11
tp140
a(g27
F0.017999999999999999
g11
tp141
a(g15
F-0.023
g11
tp142
a(g17
F0.059999999999999998
g11
tp143
a(g101
F0.060999999999999999
g11
tp144
a(g46
F-0.099000000000000005
g11
tp145
a(g63
F-0.050000000000000003
g11
tp146
a(g41
F-0.104
g11
tp147
a(g57
F0.053999999999999999
g11
tp148
a(g93
F-0.083000000000000004
g11
tp149
a(S'Batrider'
p150
F0.088999999999999996
g11
tp151
a(g82
F0.048000000000000001
g11
tp152
a(S'Chen'
p153
F0.125
g11
tp154
a(g116
F0.058000000000000003
g11
tp155
a(g51
F-0.0060000000000000001
g11
tp156
a(g124
F-0.112
g11
tp157
asg35
(lp158
(g7
F-0.043999999999999997
g11
tp159
a(g49
F-0.034000000000000002
g11
tp160
a(g15
F-0.023
g11
tp161
a(g25
F-0.055
g11
tp162
a(g65
F0.097000000000000003
g44
tp163
a(g27
F0.027
g11
tp164
a(S"Nature's Prophet"
F0.086999999999999994
g44
tp165
a(g17
F-0.0060000000000000001
g11
tp166
a(g46
F-0.023
g11
tp167
a(g13
F0.019
g11
tp168
a(g78
F0.0070000000000000001
g11
tp169
a(g82
F-0.031
g11
tp170
a(g41
F0.012999999999999999
g11
tp171
a(g23
F0.0080000000000000002
g11
tp172
a(g63
F-0.070999999999999994
g11
tp173
a(g53
F-0.107
g11
tp174
a(g51
F0.01
g11
tp175
a(S'Visage'
p176
F-0.0040000000000000001
g11
tp177
a(g61
F0.192
g44
tp178
a(g84
F0.001
g11
tp179
a(g86
F0.002
g11
tp180
a(g67
F0.12
g11
tp181
a(g116
F-0.0070000000000000001
g11
tp182
asg41
(lp183
(g15
F-0.016
g11
tp184
a(g25
F0.021000000000000001
g11
tp185
a(g101
F0.034000000000000002
g11
tp186
a(g23
F0.039
g11
tp187
a(g93
F-0.078
g11
tp188
a(g106
F0.049000000000000002
g11
tp189
a(g7
F0.050000000000000003
g11
tp190
a(g27
F0.035000000000000003
g11
tp191
a(g63
F-0.024
g11
tp192
a(S"Nature's Prophet"
F-0.035000000000000003
g11
tp193
a(g82
F-0.13700000000000001
g44
tp194
a(g150
F0.065000000000000002
g11
tp195
a(S'Anti-Mage'
F0.070000000000000007
g11
tp196
a(g65
F0.0050000000000000001
g11
tp197
a(g57
F0.12
g11
tp198
asS'Beastmaster'
p199
(lp200
(g15
F-0.034000000000000002
g11
tp201
a(g7
F0
g11
tp202
a(g23
F0.092999999999999999
g11
tp203
asg57
(lp204
(g15
F-0.065000000000000002
g11
tp205
a(g93
F0.040000000000000001
g11
tp206
a(g7
F-0.014
g11
tp207
a(g25
F-0.033000000000000002
g11
tp208
a(g27
F-0.0050000000000000001
g11
tp209
a(g150
F0.024
g11
tp210
a(S"Nature's Prophet"
F0.098000000000000004
g11
tp211
a(g46
F0.02
g11
tp212
a(g17
F0.126
g11
tp213
a(g63
F0.080000000000000002
g11
tp214
a(g110
F0.095000000000000001
g11
tp215
asg124
(lp216
(g49
F-0.048000000000000001
g11
tp217
a(g25
F-0.021000000000000001
g11
tp218
a(g15
F-0.0070000000000000001
g11
tp219
a(g13
F0.081000000000000003
g11
tp220
a(g7
F-0.023
g11
tp221
a(g23
F0.039
g11
tp222
a(g106
F-0.029999999999999999
g11
tp223
a(g150
F0.104
g11
tp224
a(g63
F-0.049000000000000002
g11
tp225
a(S"Nature's Prophet"
F-0.002
g11
tp226
asS'Silencer'
p227
(lp228
(g13
F0.066000000000000003
g11
tp229
asg67
(lp230
(g25
F0.074999999999999997
g11
tp231
a(g7
F-0.012
g11
tp232
a(g15
F-0.126
g11
tp233
a(g17
F0.035000000000000003
g11
tp234
a(g27
F0.036999999999999998
g11
tp235
a(g23
F0.058999999999999997
g11
tp236
a(g101
F-0.002
g11
tp237
a(g106
F0.13900000000000001
g11
tp238
asS'Enigma'
p239
(lp240
(g7
F0.084000000000000005
g11
tp241
asg51
(lp242
(g15
F-0.029000000000000001
g11
tp243
a(g25
F-0.083000000000000004
g11
tp244
a(g101
F0.053999999999999999
g11
tp245
a(g7
F-0.075999999999999998
g11
tp246
a(g23
F0.043999999999999997
g11
tp247
a(g93
F-0.13200000000000001
g44
tp248
a(g106
F0.089999999999999997
g11
tp249
a(S'Queen of Pain'
p250
F0.031
g11
tp251
a(g27
F0.10000000000000001
g11
tp252
a(g150
F0.059999999999999998
g11
tp253
a(S"Nature's Prophet"
F0.107
g11
tp254
a(g82
F-0.014999999999999999
g11
tp255
asg70
(lp256
(g25
F-0.027
g11
tp257
a(g15
F0.001
g11
tp258
a(g7
F0.064000000000000001
g11
tp259
a(g250
F0.076999999999999999
g11
tp260
a(g23
F0.02
g11
tp261
a(g93
F-0.017999999999999999
g11
tp262
asS'Chaos Knight'
p263
(lp264
(g116
F0.062
g11
tp265
a(g63
F-0.085999999999999993
g11
tp266
a(g49
F0
g11
tp267
asg49
(lp268
(g15
F-0.059999999999999998
g11
tp269
a(g7
F-0.012
g11
tp270
a(g106
F0.034000000000000002
g11
tp271
a(g17
F-0.017000000000000001
g11
tp272
a(g63
F-0.050999999999999997
g11
tp273
a(g25
F-0.041000000000000002
g11
tp274
a(g124
F-0.057000000000000002
g11
tp275
a(g13
F0.012999999999999999
g11
tp276
a(g27
F0.124
g44
tp277
a(g57
F0.097000000000000003
g44
tp278
a(g46
F0.083000000000000004
g11
tp279
a(g41
F-0.045999999999999999
g11
tp280
a(g23
F-0.034000000000000002
g11
tp281
a(g82
F0.012999999999999999
g11
tp282
a(g51
F-0.14399999999999999
g44
tp283
a(g65
F0.13700000000000001
g44
tp284
a(g153
F0.074999999999999997
g11
tp285
a(g84
F-0.019
g11
tp286
a(S'Anti-Mage'
F-0.075999999999999998
g11
tp287
a(g116
F0.079000000000000001
g11
tp288
a(S"Nature's Prophet"
F0.017999999999999999
g11
tp289
a(g59
F-0.048000000000000001
g11
tp290
a(g150
F0.097000000000000003
g11
tp291
a(S'Alchemist'
p292
F-0.010999999999999999
g11
tp293
a(g70
F-0.012999999999999999
g11
tp294
a(g76
F0.012
g11
tp295
a(g122
F0.074999999999999997
g11
tp296
a(g89
F0.010999999999999999
g11
tp297
asg74
(lp298
(g15
F-0.025000000000000001
g11
tp299
a(g25
F-0.121
g11
tp300
a(g7
F-0.051999999999999998
g11
tp301
a(g49
F-0.065000000000000002
g11
tp302
asg78
(lp303
(g7
F0.0080000000000000002
g11
tp304
a(g15
F-0.049000000000000002
g11
tp305
a(g106
F0.021000000000000001
g11
tp306
a(g46
F-0.0030000000000000001
g11
tp307
a(g23
F-0.0089999999999999993
g11
tp308
a(g13
F0.048000000000000001
g11
tp309
a(g17
F-0.042999999999999997
g11
tp310
a(g57
F0.027
g11
tp311
a(g49
F0.042999999999999997
g11
tp312
a(g41
F0.042999999999999997
g11
tp313
a(S"Nature's Prophet"
F0.13600000000000001
g44
tp314
a(g51
F-0.0060000000000000001
g11
tp315
a(g25
F-0.090999999999999998
g11
tp316
a(g53
F0.041000000000000002
g11
tp317
a(g153
F0.098000000000000004
g11
tp318
a(g84
F-0.055
g11
tp319
asS'Brewmaster'
p320
(lp321
(g15
F-0.063
g11
tp322
a(g17
F0.010999999999999999
g11
tp323
a(g7
F0.0089999999999999993
g11
tp324
asg65
(lp325
(g106
F0.073999999999999996
g11
tp326
a(g15
F-0.090999999999999998
g44
tp327
a(g17
F0.02
g11
tp328
a(g7
F-0.025999999999999999
g11
tp329
a(g27
F-0.001
g11
tp330
a(g93
F0.045999999999999999
g11
tp331
a(g25
F-0.078
g11
tp332
a(g63
F-0.029999999999999999
g11
tp333
a(g46
F0.042000000000000003
g11
tp334
a(g59
F-0.105
g11
tp335
a(g23
F-0.033000000000000002
g11
tp336
a(g101
F0.084000000000000005
g11
tp337
a(g110
F-0.053999999999999999
g11
tp338
a(g116
F0.14399999999999999
g44
tp339
asS'Kunkka'
p340
(lp341
(g15
F0.001
g11
tp342
asg76
(lp343
(g25
F0.059999999999999998
g11
tp344
a(g93
F0.043999999999999997
g11
tp345
asg72
(lp346
(g15
F-0.017999999999999999
g11
tp347
a(g7
F0.047
g11
tp348
a(g25
F-0.023
g11
tp349
a(g27
F0.001
g11
tp350
a(g17
F-0.039
g11
tp351
a(g63
F-0.089999999999999997
g11
tp352
asg13
(lp353
(g7
F0.019
g11
tp354
a(g15
F-0.037999999999999999
g11
tp355
a(g17
F0.017999999999999999
g11
tp356
a(g23
F0.042000000000000003
g11
tp357
a(g63
F0.02
g11
tp358
a(g25
F-0.049000000000000002
g11
tp359
a(g41
F-0.02
g11
tp360
a(g82
F-0.058000000000000003
g11
tp361
a(g51
F-0.043999999999999997
g11
tp362
a(g93
F-0.072999999999999995
g11
tp363
a(S"Nature's Prophet"
F0.075999999999999998
g11
tp364
a(g106
F0.001
g11
tp365
a(g129
F0.050999999999999997
g11
tp366
a(g27
F0.128
g44
tp367
a(g124
F-0.014
g11
tp368
a(g46
F-0.063
g11
tp369
a(g150
F0.016
g11
tp370
a(g153
F0.075999999999999998
g11
tp371
a(g84
F-0.010999999999999999
g11
tp372
a(g67
F-0.039
g11
tp373
a(g65
F0.088999999999999996
g11
tp374
a(S'Bounty Hunter'
p375
F0.0070000000000000001
g11
tp376
a(g227
F0.035999999999999997
g11
tp377
a(g176
F-0.099000000000000005
g11
tp378
asg176
(lp379
(g35
F0
g11
tp380
a(g55
F0.14000000000000001
g11
tp381
a(g13
F-0.076999999999999999
g11
tp382
a(g37
F-0.065000000000000002
g11
tp383
asg37
(lp384
(g7
F0.01
g11
tp385
a(g33
F-0.094
g44
tp386
a(g25
F-0.0089999999999999993
g11
tp387
a(g13
F0.082000000000000003
g44
tp388
a(g17
F0.095000000000000001
g44
tp389
a(g41
F0.025000000000000001
g11
tp390
a(g27
F0.040000000000000001
g11
tp391
a(g51
F-0.014
g11
tp392
a(g35
F0.029999999999999999
g11
tp393
a(g49
F-0.080000000000000002
g11
tp394
a(g61
F-0.0089999999999999993
g11
tp395
a(g63
F-0.0030000000000000001
g11
tp396
a(g82
F-0.028000000000000001
g11
tp397
a(g19
F-0.076999999999999999
g11
tp398
a(g53
F-0.016
g11
tp399
a(g78
F-0.001
g11
tp400
a(g46
F0
g11
tp401
a(g67
F0.062
g11
tp402
a(g65
F0.012
g11
tp403
a(g199
F0.043999999999999997
g11
tp404
a(g70
F-0.021000000000000001
g11
tp405
a(g116
F0.17399999999999999
g44
tp406
a(g176
F-0.047
g11
tp407
asg82
(lp408
(g101
F0.014
g11
tp409
a(g7
F0.036999999999999998
g11
tp410
a(g15
F-0.125
g44
tp411
a(g106
F0.023
g11
tp412
a(g17
F0.017000000000000001
g11
tp413
a(g93
F-0.001
g11
tp414
a(g23
F0.0040000000000000001
g11
tp415
a(g27
F0.023
g11
tp416
a(g110
F-0.11899999999999999
g11
tp417
a(S"Nature's Prophet"
F0.13500000000000001
g11
tp418
a(g46
F0.068000000000000005
g11
tp419
a(g25
F-0.159
g44
tp420
a(g116
F0.223
g44
tp421
a(g153
F0.086999999999999994
g11
tp422
a(S'Lina'
p423
F-0.041000000000000002
g11
tp424
asg27
(lp425
(g33
F-0.073999999999999996
g11
tp426
a(g35
F0.017999999999999999
g11
tp427
a(g63
F-0.085000000000000006
g11
tp428
a(g31
F0.028000000000000001
g11
tp429
a(S"Nature's Prophet"
F0.042000000000000003
g11
tp430
a(g49
F0.047
g11
tp431
a(g17
F0.071999999999999995
g11
tp432
a(g37
F0.0089999999999999993
g11
tp433
a(g65
F0.012999999999999999
g11
tp434
a(g13
F0.13700000000000001
g44
tp435
a(g41
F-0.01
g11
tp436
a(g25
F-0.040000000000000001
g11
tp437
a(g82
F-0.040000000000000001
g11
tp438
a(g57
F-0.025000000000000001
g11
tp439
a(S'Anti-Mage'
F-0.014999999999999999
g11
tp440
a(g72
F-0.058000000000000003
g11
tp441
a(g67
F0.0089999999999999993
g11
tp442
a(g46
F-0.14000000000000001
g44
tp443
a(g51
F0.010999999999999999
g11
tp444
a(g59
F0.023
g11
tp445
a(g129
F0.023
g11
tp446
a(g19
F-0.20699999999999999
g44
tp447
a(g176
F0.127
g11
tp448
asg84
(lp449
(g7
F-0.0070000000000000001
g11
tp450
a(g15
F0.056000000000000001
g11
tp451
a(g93
F-0.069000000000000006
g11
tp452
a(g17
F0.17799999999999999
g44
tp453
a(g101
F0.025000000000000001
g11
tp454
a(g106
F0.019
g11
tp455
a(g25
F-0.063
g11
tp456
a(g150
F-0.050999999999999997
g11
tp457
a(g46
F-0.066000000000000003
g11
tp458
asg46
(lp459
(g25
F0
g11
tp460
a(g106
F0.016
g11
tp461
a(g93
F0.053999999999999999
g11
tp462
a(g17
F0.045999999999999999
g11
tp463
a(S"Nature's Prophet"
F-0.027
g11
tp464
a(g150
F0.021999999999999999
g11
tp465
a(g101
F-0.0060000000000000001
g11
tp466
a(g250
F0.095000000000000001
g11
tp467
a(g23
F0.017000000000000001
g11
tp468
a(g114
F0.104
g11
tp469
a(g27
F-0.091999999999999998
g11
tp470
a(g126
F0.048000000000000001
g11
tp471
a(S'Puck'
p472
F0.052999999999999999
g11
tp473
a(g7
F-0.111
g11
tp474
a(S'Phantom Lancer'
p475
F0.0080000000000000002
g11
tp476
a(S'Templar Assassin'
p477
F-0.044999999999999998
g11
tp478
asg33
(lp479
(g25
F-0.025000000000000001
g11
tp480
a(g49
F-0.047
g11
tp481
a(g23
F-0.035000000000000003
g11
tp482
a(g35
F0.058000000000000003
g11
tp483
a(g13
F0.060999999999999999
g11
tp484
a(g63
F-0.037999999999999999
g11
tp485
a(g41
F0.029000000000000001
g11
tp486
a(S'Anti-Mage'
p487
F0.053999999999999999
g11
tp488
a(g51
F-0.028000000000000001
g11
tp489
a(g27
F0.016
g11
tp490
a(g65
F0.012999999999999999
g11
tp491
a(g78
F0.017999999999999999
g11
tp492
a(S"Nature's Prophet"
F0.090999999999999998
g44
tp493
a(g17
F-0.036999999999999998
g11
tp494
a(g82
F-0.098000000000000004
g44
tp495
a(g57
F0.0050000000000000001
g11
tp496
a(g53
F-0.0030000000000000001
g11
tp497
a(g72
F0.012999999999999999
g11
tp498
a(g61
F0.031
g11
tp499
a(g19
F-0.0080000000000000002
g11
tp500
a(g340
F0.035999999999999997
g11
tp501
a(g84
F0.11899999999999999
g44
tp502
a(g59
F-0.012
g11
tp503
a(g74
F0.042000000000000003
g11
tp504
a(g67
F-0.064000000000000001
g11
tp505
a(g7
F-0.099000000000000005
g11
tp506
a(g199
F-0.024
g11
tp507
a(g320
F-0.072999999999999995
g11
tp508
a(g89
F0.099000000000000005
g11
tp509
a(g70
F0.019
g11
tp510
a(g95
F0.091999999999999998
g11
tp511
a(g129
F0.028000000000000001
g11
tp512
a(g116
F0.13100000000000001
g11
tp513
a(g5
F-0.059999999999999998
g11
tp514
asg487
(lp515
(g15
F-0.0070000000000000001
g11
tp516
a(g25
F-0.016
g11
tp517
a(g7
F-0.0050000000000000001
g11
tp518
a(g93
F-0.124
g11
tp519
a(g27
F0.014
g11
tp520
a(g110
F0.053999999999999999
g11
tp521
a(g17
F0.123
g11
tp522
asg39
(lp523
(g25
F-0.017999999999999999
g11
tp524
a(g59
F-0.070000000000000007
g11
tp525
a(g13
F0.033000000000000002
g11
tp526
a(g31
F0.029000000000000001
g11
tp527
a(g63
F-0.029999999999999999
g11
tp528
a(g35
F-0.0089999999999999993
g11
tp529
a(g49
F-0.087999999999999995
g44
tp530
a(g37
F0.070000000000000007
g11
tp531
a(g33
F-0.121
g44
tp532
a(S"Nature's Prophet"
F0.089999999999999997
g44
tp533
a(g65
F0.040000000000000001
g11
tp534
a(g55
F0.078
g11
tp535
a(g46
F0.0040000000000000001
g11
tp536
a(g82
F-0.040000000000000001
g11
tp537
a(g78
F-0.059999999999999998
g11
tp538
a(g129
F0.048000000000000001
g11
tp539
a(g84
F0.157
g44
tp540
a(g67
F0.012999999999999999
g11
tp541
a(g72
F-0.091999999999999998
g11
tp542
a(g320
F-0.083000000000000004
g11
tp543
a(g57
F0.112
g11
tp544
a(S'Anti-Mage'
F0.10000000000000001
g11
tp545
a(g19
F0.016
g11
tp546
a(g116
F0.158
g44
tp547
a(g5
F-0.059999999999999998
g11
tp548
asg116
(lp549
(g263
F0.0070000000000000001
g11
tp550
a(g49
F-0.050999999999999997
g11
tp551
a(g63
F-0.13700000000000001
g44
tp552
a(S"Nature's Prophet"
F0.029000000000000001
g11
tp553
a(g25
F-0.059999999999999998
g11
tp554
a(g33
F-0.012
g11
tp555
a(g65
F0.105
g11
tp556
a(g35
F-0.069000000000000006
g11
tp557
a(g37
F0.089999999999999997
g11
tp558
a(g82
F0.107
g11
tp559
a(g39
F0.099000000000000005
g11
tp560
a(g31
F-0.17199999999999999
g44
tp561
asg61
(lp562
(g23
F-0.085999999999999993
g11
tp563
a(g15
F-0.105
g11
tp564
a(g7
F0.0089999999999999993
g11
tp565
a(g25
F-0.036999999999999998
g11
tp566
a(g49
F-0.048000000000000001
g11
tp567
a(g13
F0.039
g11
tp568
a(g106
F0.13700000000000001
g11
tp569
a(S"Nature's Prophet"
F0.10299999999999999
g11
tp570
a(g78
F0.029000000000000001
g11
tp571
a(g82
F-0.021999999999999999
g11
tp572
asg7
(lp573
(g13
F0.069000000000000006
g44
tp574
a(g25
F-0.057000000000000002
g11
tp575
a(g49
F-0.048000000000000001
g11
tp576
a(g37
F0.02
g11
tp577
a(g35
F-0.012
g11
tp578
a(g63
F-0.034000000000000002
g11
tp579
a(g136
F0.089999999999999997
g44
tp580
a(g17
F0.064000000000000001
g11
tp581
a(g78
F0.025999999999999999
g11
tp582
a(g27
F0.069000000000000006
g11
tp583
a(g65
F0.029000000000000001
g11
tp584
a(g82
F0.014999999999999999
g11
tp585
a(g51
F-0.124
g44
tp586
a(g41
F0.045999999999999999
g11
tp587
a(g19
F0.029999999999999999
g11
tp588
a(g57
F0.0070000000000000001
g11
tp589
a(S'Anti-Mage'
F0.0070000000000000001
g11
tp590
a(g61
F0.096000000000000002
g11
tp591
a(g84
F0.0070000000000000001
g11
tp592
a(g59
F-0.0060000000000000001
g11
tp593
a(g72
F0.029000000000000001
g11
tp594
a(g53
F-0.068000000000000005
g11
tp595
a(g239
F0.079000000000000001
g11
tp596
a(g67
F0.001
g11
tp597
a(g33
F-0.14799999999999999
g44
tp598
a(g129
F0.067000000000000004
g11
tp599
a(g199
F-0.039
g11
tp600
a(g5
F-0.029999999999999999
g11
tp601
a(g320
F-0.050000000000000003
g11
tp602
a(g70
F0.033000000000000002
g11
tp603
a(g89
F0.057000000000000002
g11
tp604
a(g74
F-0.034000000000000002
g11
tp605
a(g46
F-0.11799999999999999
g11
tp606
a(g116
F-0.078
g11
tp607
asg59
(lp608
(g17
F0
g11
tp609
a(g7
F0.029000000000000001
g11
tp610
a(g25
F-0.012999999999999999
g11
tp611
a(g15
F-0.025999999999999999
g11
tp612
a(g93
F-0.049000000000000002
g11
tp613
a(g114
F-0.014999999999999999
g11
tp614
a(g27
F0.099000000000000005
g11
tp615
a(g46
F0.035999999999999997
g11
tp616
a(g250
F-0.028000000000000001
g11
tp617
assI678
g2
(g3
tRp618
S'Razor'
p619
(lp620
(S'Visage'
p621
F0.064000000000000001
g11
tp622
a(S'Naga Siren'
p623
F-0.039
g11
tp624
a(S'Nyx Assassin'
p625
F0.002
g11
tp626
a(S'Weaver'
p627
F0.0030000000000000001
g11
tp628
asS'Timbersaw'
p629
(lp630
(S'Visage'
p631
F0.063
g11
tp632
a(S'Weaver'
p633
F-0.058999999999999997
g11
tp634
a(S'Naga Siren'
p635
F0.043999999999999997
g11
tp636
a(S'Rubick'
p637
F-0.053999999999999999
g11
tp638
a(S'Lifestealer'
p639
F-0.045999999999999999
g11
tp640
a(S'Nyx Assassin'
p641
F0.024
g11
tp642
a(S'Crystal Maiden'
p643
F0.078
g11
tp644
asg623
(lp645
(g633
F-0.0070000000000000001
g11
tp646
a(S'Gyrocopter'
p647
F0.045999999999999999
g11
tp648
a(S"Nature's Prophet"
F0.01
g11
tp649
a(S'Dark Seer'
p650
F-0.064000000000000001
g11
tp651
a(g621
F-0.0070000000000000001
g11
tp652
a(g637
F0.012
g11
tp653
a(g639
F0.111
g44
tp654
a(S'Puck'
p655
F-0.023
g11
tp656
a(S'Jakiro'
p657
F-0.072999999999999995
g11
tp658
a(S'Chen'
p659
F0.113
g44
tp660
a(S'Clockwerk'
p661
F0.036999999999999998
g11
tp662
a(S'Queen of Pain'
p663
F-0.055
g11
tp664
a(S'Dragon Knight'
p665
F0.062
g11
tp666
a(g629
F0.021999999999999999
g11
tp667
a(g643
F0.074999999999999997
g11
tp668
a(S'Batrider'
p669
F0
g11
tp670
a(S'Outworld Devourer'
p671
F-0.083000000000000004
g11
tp672
a(S'Mirana'
p673
F0.108
g11
tp674
a(S'Alchemist'
p675
F-0.13800000000000001
g44
tp676
a(g619
F0.0089999999999999993
g11
tp677
a(S'Shadow Fiend'
p678
F0.001
g11
tp679
a(S'Lone Druid'
p680
F0.10000000000000001
g11
tp681
a(S'Keeper of the Light'
p682
F-0.037999999999999999
g11
tp683
asS'Magnus'
p684
(lp685
(g631
F0.113
g11
tp686
a(g675
F-0.01
g11
tp687
a(g637
F0.113
g11
tp688
asS'Juggernaut'
p689
(lp690
(g621
F0.029000000000000001
g11
tp691
asg678
(lp692
(g623
F-0.01
g11
tp693
a(g621
F0.096000000000000002
g11
tp694
a(S'Dark Seer'
p695
F-0.0089999999999999993
g11
tp696
a(g625
F0.042000000000000003
g11
tp697
a(S'Rubick'
p698
F0.002
g11
tp699
asg665
(lp700
(g698
F-0.037999999999999999
g11
tp701
a(g621
F0.13100000000000001
g44
tp702
a(g695
F0.02
g11
tp703
a(S'Chen'
p704
F0.025999999999999999
g11
tp705
a(g627
F0.045999999999999999
g11
tp706
a(S"Nature's Prophet"
F0.021999999999999999
g11
tp707
a(S'Lifestealer'
p708
F0.025999999999999999
g11
tp709
a(S'Gyrocopter'
p710
F-0.0089999999999999993
g11
tp711
a(g625
F-0.019
g11
tp712
a(S'Shadow Demon'
p713
F-0.13300000000000001
g44
tp714
a(g623
F0.031
g11
tp715
a(S'Clockwerk'
p716
F-0.070999999999999994
g11
tp717
a(S'Alchemist'
p718
F-0.037999999999999999
g11
tp719
a(S'Bane'
p720
F0.097000000000000003
g11
tp721
a(g643
F0.129
g11
tp722
a(S'Jakiro'
p723
F-0.14199999999999999
g44
tp724
asg663
(lp725
(g621
F0.060999999999999999
g11
tp726
a(g698
F0.042999999999999997
g11
tp727
a(g708
F-0.0050000000000000001
g11
tp728
a(g695
F0.0050000000000000001
g11
tp729
a(g627
F-0.040000000000000001
g11
tp730
a(g623
F-0.025999999999999999
g11
tp731
a(g625
F0.035999999999999997
g11
tp732
a(g710
F0.0080000000000000002
g11
tp733
a(S"Nature's Prophet"
F-0.021999999999999999
g11
tp734
a(g720
F-0.073999999999999996
g11
tp735
a(g713
F-0.021999999999999999
g11
tp736
a(g718
F-0.059999999999999998
g11
tp737
a(g723
F-0.10299999999999999
g11
tp738
asS'Storm Spirit'
p739
(lp740
(g708
F-0.040000000000000001
g11
tp741
a(g621
F0.035999999999999997
g11
tp742
a(g698
F-0.031
g11
tp743
a(g695
F0.0070000000000000001
g11
tp744
asS"Nature's Prophet"
p745
(lp746
(g621
F0.0060000000000000001
g11
tp747
a(g698
F0.0030000000000000001
g11
tp748
a(g623
F0.02
g11
tp749
a(g708
F0.080000000000000002
g44
tp750
a(g625
F0.029999999999999999
g11
tp751
a(g704
F0.076999999999999999
g11
tp752
a(g718
F-0.124
g44
tp753
a(g665
F0.063
g11
tp754
a(g655
F-0.002
g11
tp755
a(g710
F0.080000000000000002
g11
tp756
a(g713
F-0.123
g44
tp757
a(g627
F-0.012999999999999999
g11
tp758
a(S'Io'
p759
F0.081000000000000003
g11
tp760
a(g682
F-0.037999999999999999
g11
tp761
a(g643
F0.078
g11
tp762
a(g720
F-0.0040000000000000001
g11
tp763
a(g663
F-0.041000000000000002
g11
tp764
a(S'Vengeful Spirit'
p765
F0.02
g11
tp766
a(S'Outworld Devourer'
p767
F0.057000000000000002
g11
tp768
a(S'Anti-Mage'
F-0.060999999999999999
g11
tp769
a(S'Leshrac'
p770
F-0.12
g11
tp771
a(S'Windranger'
p772
F0.041000000000000002
g11
tp773
a(S'Sand King'
p774
F0.083000000000000004
g11
tp775
a(g661
F0.024
g11
tp776
asg772
(lp777
(g621
F0.13800000000000001
g44
tp778
a(g627
F-0.021999999999999999
g11
tp779
a(g708
F-0.075999999999999998
g11
tp780
a(g718
F0.063
g11
tp781
a(g625
F0.075999999999999998
g11
tp782
a(g698
F-0.066000000000000003
g11
tp783
a(S"Nature's Prophet"
F0.037999999999999999
g11
tp784
a(g710
F0.049000000000000002
g11
tp785
asg720
(lp786
(g695
F-0.057000000000000002
g11
tp787
a(g627
F-0.001
g11
tp788
a(g710
F0.113
g44
tp789
a(g718
F-0.060999999999999999
g11
tp790
a(S"Nature's Prophet"
F-0.0080000000000000002
g11
tp791
a(g621
F0.096000000000000002
g11
tp792
a(g716
F0.096000000000000002
g11
tp793
a(S'Batrider'
p794
F-0.0089999999999999993
g11
tp795
a(g708
F0.024
g11
tp796
a(S'Queen of Pain'
p797
F-0.097000000000000003
g11
tp798
a(g767
F0.114
g11
tp799
a(S'Dragon Knight'
p800
F0.13400000000000001
g44
tp801
a(S'Puck'
p802
F-0.001
g11
tp803
a(g704
F0.082000000000000003
g11
tp804
asg643
(lp805
(g627
F0.01
g11
tp806
a(g708
F-0.027
g11
tp807
a(S"Nature's Prophet"
F0.032000000000000001
g11
tp808
a(g623
F0.039
g11
tp809
a(g695
F-0.11899999999999999
g44
tp810
a(g621
F0.063
g11
tp811
a(g800
F0.124
g11
tp812
a(g718
F0.0080000000000000002
g11
tp813
a(g710
F0.11
g11
tp814
a(g629
F0.02
g11
tp815
asg770
(lp816
(g713
F-0.021999999999999999
g11
tp817
a(S"Nature's Prophet"
F-0.063
g11
tp818
a(g695
F-0.010999999999999999
g11
tp819
asg647
(lp820
(g698
F0.0030000000000000001
g11
tp821
a(g621
F0.02
g11
tp822
a(g623
F0.029999999999999999
g11
tp823
a(g650
F-0.092999999999999999
g44
tp824
a(g625
F0.0050000000000000001
g11
tp825
a(g661
F0.0070000000000000001
g11
tp826
a(S"Nature's Prophet"
F0.053999999999999999
g11
tp827
a(g713
F-0.10299999999999999
g44
tp828
a(g665
F0.0060000000000000001
g11
tp829
a(g720
F0.090999999999999998
g11
tp830
a(g655
F0.02
g11
tp831
a(g659
F0.156
g44
tp832
a(g669
F0.039
g11
tp833
a(g657
F-0.029999999999999999
g11
tp834
a(g663
F-0.036999999999999998
g11
tp835
a(g639
F0.031
g11
tp836
a(g767
F0.072999999999999995
g11
tp837
a(S'Lone Druid'
p838
F-0.060999999999999999
g11
tp839
a(g633
F-0.071999999999999995
g11
tp840
a(g772
F0.025999999999999999
g11
tp841
a(g643
F0.13
g11
tp842
a(S'Treant Protector'
p843
F0.028000000000000001
g11
tp844
asg723
(lp845
(g650
F0.019
g11
tp846
a(g639
F0.028000000000000001
g11
tp847
a(g623
F0.023
g11
tp848
a(g633
F-0.072999999999999995
g11
tp849
a(g710
F0.082000000000000003
g11
tp850
a(g713
F-0.068000000000000005
g11
tp851
a(g718
F0.021999999999999999
g11
tp852
a(g621
F0.13
g44
tp853
a(g663
F-0.035999999999999997
g11
tp854
a(g665
F-0.014999999999999999
g11
tp855
asg765
(lp856
(g704
F0.13400000000000001
g44
tp857
a(S"Nature's Prophet"
F0.048000000000000001
g11
tp858
a(g627
F0.010999999999999999
g11
tp859
asS'Lina'
p860
(lp861
(g713
F-0.0089999999999999993
g11
tp862
a(g708
F0.056000000000000001
g11
tp863
asg774
(lp864
(g621
F0.012
g11
tp865
a(g627
F-0.028000000000000001
g11
tp866
a(g695
F-0.050000000000000003
g11
tp867
a(S"Nature's Prophet"
F0.085999999999999993
g11
tp868
asg669
(lp869
(g698
F-0.0040000000000000001
g11
tp870
a(g621
F0.028000000000000001
g11
tp871
a(g710
F0.050999999999999997
g11
tp872
a(g639
F0.044999999999999998
g11
tp873
a(g623
F-0.0040000000000000001
g11
tp874
a(g633
F-0.111
g11
tp875
a(g720
F-0.019
g11
tp876
a(g713
F-0.128
g44
tp877
a(g704
F0.068000000000000005
g11
tp878
a(g625
F-0.002
g11
tp879
a(g718
F-0.067000000000000004
g11
tp880
asg650
(lp881
(g723
F-0.02
g11
tp882
a(g698
F0.014999999999999999
g11
tp883
a(g621
F0.075999999999999998
g44
tp884
a(g710
F-0.02
g11
tp885
a(g627
F-0.002
g11
tp886
a(g639
F-0.002
g11
tp887
a(g623
F-0.0070000000000000001
g11
tp888
a(g625
F0.069000000000000006
g11
tp889
a(g718
F0.0040000000000000001
g11
tp890
a(g713
F-0.025000000000000001
g11
tp891
a(g665
F0.108
g44
tp892
a(g704
F0.094
g44
tp893
a(g720
F-0.0060000000000000001
g11
tp894
a(g655
F0.044999999999999998
g11
tp895
a(g663
F0.033000000000000002
g11
tp896
a(g767
F-0.037999999999999999
g11
tp897
a(g643
F-0.025999999999999999
g11
tp898
a(g739
F0.073999999999999996
g11
tp899
a(g682
F-0.063
g11
tp900
a(S'Anti-Mage'
F0.025000000000000001
g11
tp901
a(g678
F0.058999999999999997
g11
tp902
a(g774
F-0.0060000000000000001
g11
tp903
a(S'Enchantress'
p904
F0.087999999999999995
g11
tp905
a(g759
F-0.01
g11
tp906
a(g770
F-0.021000000000000001
g11
tp907
asg675
(lp908
(g621
F0.063
g11
tp909
a(g650
F-0.027
g11
tp910
a(g698
F0.019
g11
tp911
a(g713
F0.01
g11
tp912
a(S"Nature's Prophet"
F-0.108
g44
tp913
a(g659
F0.044999999999999998
g11
tp914
a(g625
F0.019
g11
tp915
a(g661
F-0.045999999999999999
g11
tp916
a(g633
F0.099000000000000005
g11
tp917
a(g720
F-0.041000000000000002
g11
tp918
a(g655
F-0.036999999999999998
g11
tp919
a(g657
F-0.048000000000000001
g11
tp920
a(g623
F-0.112
g11
tp921
a(g772
F0.082000000000000003
g11
tp922
a(g682
F-0.14799999999999999
g44
tp923
a(g663
F-0.063
g11
tp924
a(g669
F-0.036999999999999998
g11
tp925
a(g684
F-0.104
g11
tp926
a(S'Bounty Hunter'
p927
F0.028000000000000001
g11
tp928
a(g665
F0.019
g11
tp929
a(g767
F-0.012
g11
tp930
a(g643
F0.070000000000000007
g11
tp931
asS'Chaos Knight'
p932
(lp933
(g759
F0.048000000000000001
g11
tp934
asg671
(lp935
(g698
F-0.029000000000000001
g11
tp936
a(g621
F0.050000000000000003
g11
tp937
a(g633
F-0.021000000000000001
g11
tp938
a(g625
F0.0070000000000000001
g11
tp939
a(g639
F0.051999999999999998
g11
tp940
a(g650
F-0.128
g44
tp941
a(g623
F-0.11600000000000001
g11
tp942
a(g713
F-0.023
g11
tp943
a(g647
F0.056000000000000001
g11
tp944
a(S"Nature's Prophet"
F0.014
g11
tp945
a(g659
F0.16400000000000001
g44
tp946
a(g720
F0.074999999999999997
g11
tp947
a(g675
F-0.070999999999999994
g11
tp948
asg661
(lp949
(g621
F0.034000000000000002
g11
tp950
a(g710
F0.057000000000000002
g11
tp951
a(g698
F0.001
g11
tp952
a(g704
F0.125
g44
tp953
a(g627
F-0.010999999999999999
g11
tp954
a(g718
F-0.037999999999999999
g11
tp955
a(g625
F0.0089999999999999993
g11
tp956
a(g623
F0.070999999999999994
g11
tp957
a(g708
F-0.109
g44
tp958
a(g759
F0.121
g44
tp959
a(g713
F-0.17100000000000001
g44
tp960
a(g720
F0.124
g44
tp961
a(g665
F-0.0060000000000000001
g11
tp962
a(S"Nature's Prophet"
F0.048000000000000001
g11
tp963
asS'Kunkka'
p964
(lp965
(g713
F-0.059999999999999998
g11
tp966
asg673
(lp967
(g623
F0.071999999999999995
g11
tp968
a(g713
F0.028000000000000001
g11
tp969
asg633
(lp970
(g623
F-0.002
g11
tp971
a(g621
F0.069000000000000006
g11
tp972
a(g625
F0.053999999999999999
g11
tp973
a(g650
F-0.053999999999999999
g11
tp974
a(g698
F-0.012999999999999999
g11
tp975
a(g665
F0.082000000000000003
g11
tp976
a(g713
F-0.043999999999999997
g11
tp977
a(g704
F0.091999999999999998
g11
tp978
a(S"Nature's Prophet"
F-0.017999999999999999
g11
tp979
a(g639
F-0.002
g11
tp980
a(g643
F0.050999999999999997
g11
tp981
a(g661
F-0.040000000000000001
g11
tp982
a(g655
F0.065000000000000002
g11
tp983
a(g843
F0.127
g44
tp984
a(g720
F-0.002
g11
tp985
a(g718
F0.078
g11
tp986
a(g723
F-0.16400000000000001
g44
tp987
a(g767
F0.017000000000000001
g11
tp988
a(S'Abaddon'
p989
F0.025000000000000001
g11
tp990
a(g663
F-0.064000000000000001
g11
tp991
a(g772
F-0.024
g11
tp992
a(g629
F-0.075999999999999998
g11
tp993
a(g794
F-0.10199999999999999
g11
tp994
a(g774
F-0.035999999999999997
g11
tp995
a(g759
F0.113
g11
tp996
a(g619
F0.056000000000000001
g11
tp997
a(g710
F-0.050999999999999997
g11
tp998
a(S'Earthshaker'
p999
F-0.10199999999999999
g11
tp1000
a(g765
F-0.021999999999999999
g11
tp1001
asS'Spectre'
p1002
(lp1003
(g621
F0.012999999999999999
g11
tp1004
asg843
(lp1005
(g633
F0.053999999999999999
g11
tp1006
a(g647
F-0.024
g11
tp1007
asg639
(lp1008
(g698
F-0.0050000000000000001
g11
tp1009
a(g621
F0.0030000000000000001
g11
tp1010
a(g625
F0.045999999999999999
g11
tp1011
a(g655
F0.094
g44
tp1012
a(S"Nature's Prophet"
F0.050999999999999997
g11
tp1013
a(g695
F-0.078
g11
tp1014
a(g704
F0.161
g44
tp1015
a(g739
F-0.049000000000000002
g11
tp1016
a(g713
F-0.053999999999999999
g11
tp1017
a(g623
F0.091999999999999998
g44
tp1018
a(g723
F-0.086999999999999994
g11
tp1019
a(g627
F-0.025999999999999999
g11
tp1020
a(g665
F0.037999999999999999
g11
tp1021
a(g663
F-0.052999999999999999
g11
tp1022
a(g643
F-0.01
g11
tp1023
a(g661
F-0.16200000000000001
g44
tp1024
a(g794
F0.029999999999999999
g11
tp1025
a(g767
F0.066000000000000003
g11
tp1026
a(g772
F-0.10199999999999999
g11
tp1027
a(g682
F-0.017999999999999999
g11
tp1028
a(g710
F0.028000000000000001
g11
tp1029
a(S'Bounty Hunter'
p1030
F0.16200000000000001
g44
tp1031
a(g838
F-0.01
g11
tp1032
a(g860
F-0.082000000000000003
g11
tp1033
a(g720
F-0.001
g11
tp1034
a(g629
F-0.086999999999999994
g11
tp1035
a(g904
F-0.055
g11
tp1036
asg999
(lp1037
(g627
F-0.085999999999999993
g11
tp1038
asg621
(lp1039
(g639
F-0.017000000000000001
g11
tp1040
a(g641
F0.037999999999999999
g11
tp1041
a(g637
F-0.019
g11
tp1042
a(g745
F-0.042999999999999997
g11
tp1043
a(g650
F-0.02
g11
tp1044
a(g647
F-0.0030000000000000001
g11
tp1045
a(g633
F0.025000000000000001
g11
tp1046
a(g675
F-0.002
g11
tp1047
a(g655
F0.021000000000000001
g11
tp1048
a(g661
F-0.039
g11
tp1049
a(g665
F0.123
g44
tp1050
a(g635
F-0.045999999999999999
g11
tp1051
a(g663
F-0.0070000000000000001
g11
tp1052
a(g680
F-0.014999999999999999
g11
tp1053
a(S'Anti-Mage'
F0.040000000000000001
g11
tp1054
a(g629
F0.002
g11
tp1055
a(g772
F0.091999999999999998
g11
tp1056
a(g774
F-0.040000000000000001
g11
tp1057
a(g671
F0.043999999999999997
g11
tp1058
a(g669
F-0.0070000000000000001
g11
tp1059
a(g739
F0.0070000000000000001
g11
tp1060
a(g927
F0.059999999999999998
g11
tp1061
a(g1002
F-0.095000000000000001
g11
tp1062
a(g720
F0.050999999999999997
g11
tp1063
a(g643
F0.059999999999999998
g11
tp1064
a(g619
F0.072999999999999995
g11
tp1065
a(g657
F-0.0050000000000000001
g11
tp1066
a(g678
F0.068000000000000005
g11
tp1067
a(g689
F0.017999999999999999
g11
tp1068
a(g684
F-0.045999999999999999
g11
tp1069
asg680
(lp1070
(g621
F0.025000000000000001
g11
tp1071
a(g698
F-0.012
g11
tp1072
a(S'Shadow Demon'
p1073
F-0.012999999999999999
g11
tp1074
a(g639
F0.01
g11
tp1075
a(g625
F0.068000000000000005
g11
tp1076
a(g659
F0.065000000000000002
g11
tp1077
a(g623
F0.10100000000000001
g11
tp1078
a(g647
F-0.043999999999999997
g11
tp1079
a(g655
F0.044999999999999998
g11
tp1080
asg655
(lp1081
(g708
F0.10000000000000001
g44
tp1082
a(g621
F0.047
g11
tp1083
a(g698
F0.0089999999999999993
g11
tp1084
a(S"Nature's Prophet"
F-0.025000000000000001
g11
tp1085
a(g695
F-0.025000000000000001
g11
tp1086
a(g623
F-0.035999999999999997
g11
tp1087
a(g627
F0.047
g11
tp1088
a(g704
F0.19900000000000001
g44
tp1089
a(g710
F0.023
g11
tp1090
a(g718
F-0.075999999999999998
g11
tp1091
a(g713
F-0.062
g11
tp1092
a(g625
F-0.034000000000000002
g11
tp1093
a(g759
F0.089999999999999997
g11
tp1094
a(g682
F-0.010999999999999999
g11
tp1095
a(S'Anti-Mage'
F0.017999999999999999
g11
tp1096
a(g720
F-0.02
g11
tp1097
a(g838
F0.031
g11
tp1098
asg641
(lp1099
(g621
F0.048000000000000001
g11
tp1100
a(g633
F0.02
g11
tp1101
a(g639
F0.035999999999999997
g11
tp1102
a(S"Nature's Prophet"
F-0.0089999999999999993
g11
tp1103
a(g650
F-0.017000000000000001
g11
tp1104
a(g647
F-0.0080000000000000002
g11
tp1105
a(g637
F0.044999999999999998
g11
tp1106
a(g675
F-0.035999999999999997
g11
tp1107
a(g661
F-0.053999999999999999
g11
tp1108
a(g1073
F0.021999999999999999
g11
tp1109
a(g665
F-0.017000000000000001
g11
tp1110
a(g671
F0.010999999999999999
g11
tp1111
a(g663
F-0.021999999999999999
g11
tp1112
a(g655
F-0.050000000000000003
g11
tp1113
a(g659
F0.17199999999999999
g44
tp1114
a(g682
F-0.083000000000000004
g11
tp1115
a(S'Anti-Mage'
F-0.02
g11
tp1116
a(g619
F0.021000000000000001
g11
tp1117
a(g680
F0.037999999999999999
g11
tp1118
a(g772
F0.040000000000000001
g11
tp1119
a(g927
F0.085000000000000006
g11
tp1120
a(g629
F-0.027
g11
tp1121
a(g669
F-0.027
g11
tp1122
a(g678
F0.024
g11
tp1123
asg989
(lp1124
(g633
F0.058000000000000003
g11
tp1125
asg927
(lp1126
(g621
F0.029999999999999999
g11
tp1127
a(g639
F0.112
g11
tp1128
a(g704
F-0.02
g11
tp1129
a(g698
F-0.034000000000000002
g11
tp1130
a(g625
F0.044999999999999998
g11
tp1131
a(g718
F-0.067000000000000004
g11
tp1132
asg713
(lp1133
(g650
F-0.0050000000000000001
g11
tp1134
a(g675
F0.060999999999999999
g11
tp1135
a(g639
F0.042000000000000003
g11
tp1136
a(g633
F0.028000000000000001
g11
tp1137
a(g647
F-0.01
g11
tp1138
a(S"Nature's Prophet"
F-0.056000000000000001
g11
tp1139
a(g625
F0.128
g44
tp1140
a(g838
F0.063
g11
tp1141
a(g665
F-0.025000000000000001
g11
tp1142
a(g655
F0.028000000000000001
g11
tp1143
a(g657
F-0.086999999999999994
g11
tp1144
a(g964
F-0.086999999999999994
g11
tp1145
a(g860
F-0.050999999999999997
g11
tp1146
a(g661
F-0.128
g44
tp1147
a(g669
F-0.047
g11
tp1148
a(g671
F0.086999999999999994
g11
tp1149
a(g663
F0.025999999999999999
g11
tp1150
a(g770
F-0.012
g11
tp1151
a(g673
F0.14099999999999999
g44
tp1152
asS'Anti-Mage'
p1153
(lp1154
(g698
F0.043999999999999997
g11
tp1155
a(g621
F0.096000000000000002
g11
tp1156
a(g625
F0.025999999999999999
g11
tp1157
a(g695
F-0.014999999999999999
g11
tp1158
a(S"Nature's Prophet"
F-0.053999999999999999
g11
tp1159
a(g802
F0.048000000000000001
g11
tp1160
asg682
(lp1161
(S"Nature's Prophet"
F-0.0030000000000000001
g11
tp1162
a(S'Phantom Lancer'
p1163
F-0.0060000000000000001
g11
tp1164
a(g639
F0.045999999999999999
g11
tp1165
a(g641
F-0.0089999999999999993
g11
tp1166
a(g637
F0.094
g11
tp1167
a(g650
F-0.074999999999999997
g11
tp1168
a(g675
F-0.129
g44
tp1169
a(g655
F0.047
g11
tp1170
a(g635
F0.0070000000000000001
g11
tp1171
asg759
(lp1172
(g932
F-0.0089999999999999993
g11
tp1173
a(S"Nature's Prophet"
F0.017000000000000001
g11
tp1174
a(g661
F0.033000000000000002
g11
tp1175
a(g659
F-0.002
g11
tp1176
a(g655
F0.049000000000000002
g11
tp1177
a(g633
F0.053999999999999999
g11
tp1178
a(g650
F-0.121
g11
tp1179
asg659
(lp1180
(g698
F-0.051999999999999998
g11
tp1181
a(g639
F0.089999999999999997
g44
tp1182
a(S"Nature's Prophet"
F-0.023
g11
tp1183
a(g665
F-0.033000000000000002
g11
tp1184
a(g650
F-0.052999999999999999
g11
tp1185
a(g633
F-0.0030000000000000001
g11
tp1186
a(g661
F0.001
g11
tp1187
a(g718
F-0.070999999999999994
g11
tp1188
a(g655
F0.122
g44
tp1189
a(g623
F0.023
g11
tp1190
a(g710
F0.082000000000000003
g11
tp1191
a(g625
F0.111
g11
tp1192
a(g927
F-0.041000000000000002
g11
tp1193
a(g759
F-0.037999999999999999
g11
tp1194
a(g765
F0.0060000000000000001
g11
tp1195
a(g669
F-0.017999999999999999
g11
tp1196
a(g838
F-0.025999999999999999
g11
tp1197
a(g767
F0.107
g11
tp1198
a(g720
F-0.014
g11
tp1199
asg698
(lp1200
(g639
F0.025000000000000001
g11
tp1201
a(g621
F0.031
g11
tp1202
a(g650
F-0.031
g11
tp1203
a(g647
F0.029999999999999999
g11
tp1204
a(S"Nature's Prophet"
F0.0040000000000000001
g11
tp1205
a(g659
F0.049000000000000002
g11
tp1206
a(g665
F0.0040000000000000001
g11
tp1207
a(g655
F0.033000000000000002
g11
tp1208
a(g669
F0.010999999999999999
g11
tp1209
a(g633
F-0.0070000000000000001
g11
tp1210
a(g675
F0.0040000000000000001
g11
tp1211
a(g661
F-0.021999999999999999
g11
tp1212
a(g623
F0.023
g11
tp1213
a(g625
F0.085000000000000006
g11
tp1214
a(g663
F0.025000000000000001
g11
tp1215
a(g671
F0.014999999999999999
g11
tp1216
a(g1153
F0.037999999999999999
g11
tp1217
a(g680
F-0.002
g11
tp1218
a(g739
F-0.01
g11
tp1219
a(g629
F-0.065000000000000002
g11
tp1220
a(g682
F0.059999999999999998
g11
tp1221
a(g927
F0.045999999999999999
g11
tp1222
a(g772
F-0.062
g11
tp1223
a(g678
F0.024
g11
tp1224
a(g684
F0.0040000000000000001
g11
tp1225
asg904
(lp1226
(g650
F0.049000000000000002
g11
tp1227
a(g639
F-0.017999999999999999
g11
tp1228
asg1163
(lp1229
(g682
F0.029000000000000001
g11
tp1230
assI679
g2
(g3
tRp1231
S'Razor'
p1232
(lp1233
(S'Crystal Maiden'
p1234
F-0.012999999999999999
g11
tp1235
asS'Night Stalker'
p1236
(lp1237
(g1234
F-0.091999999999999998
g11
tp1238
a(S'Visage'
p1239
F-0.073999999999999996
g11
tp1240
a(S"Nature's Prophet"
F-0.052999999999999999
g11
tp1241
a(S'Venomancer'
p1242
F0.107
g11
tp1243
asS'Timbersaw'
p1244
(lp1245
(g1234
F0.079000000000000001
g11
tp1246
a(S'Visage'
p1247
F-0.050999999999999997
g11
tp1248
a(S'Rubick'
p1249
F0.049000000000000002
g11
tp1250
a(S'Mirana'
p1251
F-0.044999999999999998
g11
tp1252
a(S'Weaver'
p1253
F0.031
g11
tp1254
a(S'Alchemist'
p1255
F0.021999999999999999
g11
tp1256
a(g1242
F-0.010999999999999999
g11
tp1257
a(S'Chen'
p1258
F0.13600000000000001
g11
tp1259
a(S'Windranger'
p1260
F0.01
g11
tp1261
a(S'Lifestealer'
p1262
F0.10299999999999999
g11
tp1263
a(S'Luna'
p1264
F0.097000000000000003
g11
tp1265
a(S'Dragon Knight'
p1266
F0.035000000000000003
g11
tp1267
a(S'Shadow Demon'
p1268
F-0.034000000000000002
g11
tp1269
a(S'Naga Siren'
p1270
F-0.24299999999999999
g44
tp1271
a(S'Earthshaker'
p1272
F0.098000000000000004
g11
tp1273
a(S'Lich'
p1274
F-0.064000000000000001
g11
tp1275
a(S'Gyrocopter'
p1276
F-0.192
g44
tp1277
asS'Naga Siren'
p1278
(lp1279
(g1251
F-0.025999999999999999
g11
tp1280
a(g1234
F0.080000000000000002
g11
tp1281
a(S"Nature's Prophet"
F0.104
g11
tp1282
a(g1239
F0.023
g11
tp1283
a(S'Clockwerk'
p1284
F-0.037999999999999999
g11
tp1285
a(g1244
F-0.17399999999999999
g44
tp1286
asS'Magnus'
p1287
(lp1288
(g1234
F-0.029000000000000001
g11
tp1289
asS'Juggernaut'
p1290
(lp1291
(g1234
F-0.037999999999999999
g11
tp1292
a(g1239
F0.126
g11
tp1293
asS'Outworld Devourer'
p1294
(lp1295
(g1234
F0.033000000000000002
g11
tp1296
a(g1284
F-0.01
g11
tp1297
a(S'Rubick'
p1298
F0.025999999999999999
g11
tp1299
a(g1251
F-0.065000000000000002
g11
tp1300
a(g1242
F-0.012999999999999999
g11
tp1301
a(g1239
F-0.084000000000000005
g11
tp1302
a(g1258
F-0.0030000000000000001
g11
tp1303
asS'Tiny'
p1304
(lp1305
(S'Io'
p1306
F0.092999999999999999
g11
tp1307
asS'Shadow Fiend'
p1308
(lp1309
(S'Clockwerk'
p1310
F-0.045999999999999999
g11
tp1311
a(g1234
F0.056000000000000001
g11
tp1312
asS'Invoker'
p1313
(lp1314
(g1234
F0.012999999999999999
g11
tp1315
a(g1284
F0.0070000000000000001
g11
tp1316
a(g1239
F0.0040000000000000001
g11
tp1317
a(g1251
F-0.0030000000000000001
g11
tp1318
a(S"Nature's Prophet"
F0.094
g11
tp1319
a(g1255
F0.094
g11
tp1320
a(g1242
F0.057000000000000002
g11
tp1321
a(g1298
F0.072999999999999995
g11
tp1322
a(g1262
F0.086999999999999994
g11
tp1323
a(g1253
F-0.037999999999999999
g11
tp1324
asS'Storm Spirit'
p1325
(lp1326
(g1234
F0.035000000000000003
g11
tp1327
a(g1239
F0.058999999999999997
g11
tp1328
a(S'Lifestealer'
p1329
F0.017000000000000001
g11
tp1330
a(g1310
F-0.0089999999999999993
g11
tp1331
a(S'Venomancer'
p1332
F0.041000000000000002
g11
tp1333
a(S'Chen'
p1334
F0.027
g11
tp1335
a(g1298
F0.027
g11
tp1336
a(S'Alchemist'
p1337
F0.014999999999999999
g11
tp1338
a(S'Elder Titan'
p1339
F0.154
g11
tp1340
a(g1251
F-0.042000000000000003
g11
tp1341
a(S'Nyx Assassin'
p1342
F0.13700000000000001
g11
tp1343
a(S'Bristleback'
p1344
F0.20100000000000001
g44
tp1345
a(S'Weaver'
p1346
F-0.14399999999999999
g11
tp1347
asS'Pugna'
p1348
(lp1349
(g1310
F0.01
g11
tp1350
a(g1298
F0.095000000000000001
g11
tp1351
a(g1234
F0.02
g11
tp1352
a(g1239
F-0.055
g11
tp1353
a(g1272
F0.025999999999999999
g11
tp1354
a(S'Dragon Knight'
p1355
F0.044999999999999998
g11
tp1356
a(g1334
F-0.0030000000000000001
g11
tp1357
a(S"Nature's Prophet"
F-0.037999999999999999
g11
tp1358
a(g1242
F-0.019
g11
tp1359
asS"Nature's Prophet"
p1360
(lp1361
(g1234
F-0.074999999999999997
g11
tp1362
a(g1298
F-0.085000000000000006
g11
tp1363
a(g1239
F0.16800000000000001
g44
tp1364
a(g1337
F0.106
g11
tp1365
a(g1242
F0.129
g44
tp1366
a(g1329
F-0.002
g11
tp1367
a(g1251
F0.010999999999999999
g11
tp1368
a(g1264
F-0.048000000000000001
g11
tp1369
a(S'Puck'
p1370
F-0.001
g11
tp1371
a(g1278
F-0.025000000000000001
g11
tp1372
a(g1313
F0.094
g11
tp1373
a(g1334
F0.0030000000000000001
g11
tp1374
a(g1266
F0.044999999999999998
g11
tp1375
a(S'Enchantress'
p1376
F0.021000000000000001
g11
tp1377
a(g1346
F-0.14399999999999999
g11
tp1378
a(g1342
F0.074999999999999997
g11
tp1379
a(g1260
F-0.037999999999999999
g11
tp1380
a(g1236
F-0.055
g11
tp1381
a(g1348
F-0.021000000000000001
g11
tp1382
asS'Bane'
p1383
(lp1384
(S'Mirana'
p1385
F-0.058999999999999997
g11
tp1386
a(g1310
F0.017000000000000001
g11
tp1387
a(g1337
F0.095000000000000001
g11
tp1388
asg1242
(lp1389
(g1310
F0.002
g11
tp1390
a(g1346
F-0.014999999999999999
g11
tp1391
a(S"Nature's Prophet"
F0.124
g44
tp1392
a(g1239
F0.098000000000000004
g11
tp1393
a(g1251
F-0.050999999999999997
g11
tp1394
a(g1329
F-0.11899999999999999
g11
tp1395
a(g1337
F0.0089999999999999993
g11
tp1396
a(g1355
F0.064000000000000001
g11
tp1397
a(g1260
F0.031
g11
tp1398
a(S'Bounty Hunter'
p1399
F0.043999999999999997
g11
tp1400
a(g1234
F-0.021000000000000001
g11
tp1401
a(g1244
F-0.075999999999999998
g11
tp1402
a(S'Storm Spirit'
p1403
F0.070999999999999994
g11
tp1404
a(g1298
F0.062
g11
tp1405
a(S'Gyrocopter'
p1406
F0.14899999999999999
g11
tp1407
a(S'Luna'
p1408
F-0.0050000000000000001
g11
tp1409
a(g1342
F0.062
g11
tp1410
a(g1313
F0.051999999999999998
g11
tp1411
a(S'Batrider'
p1412
F-0.099000000000000005
g11
tp1413
a(g1370
F-0.058000000000000003
g11
tp1414
a(g1344
F-0.087999999999999995
g11
tp1415
a(g1339
F-0.012
g11
tp1416
a(g1294
F-0.105
g11
tp1417
a(S'Pugna'
p1418
F-0.0070000000000000001
g11
tp1419
a(g1236
F0.10000000000000001
g11
tp1420
asg1234
(lp1421
(g1310
F-0.058000000000000003
g11
tp1422
a(g1385
F-0.050000000000000003
g11
tp1423
a(g1244
F0.052999999999999999
g11
tp1424
a(g1346
F-0.069000000000000006
g11
tp1425
a(g1337
F0.01
g11
tp1426
a(g1339
F0.17199999999999999
g44
tp1427
a(g1239
F0.016
g11
tp1428
a(g1408
F0.074999999999999997
g11
tp1429
a(g1360
F-0.041000000000000002
g11
tp1430
a(g1329
F-0.014999999999999999
g11
tp1431
a(g1344
F0.111
g44
tp1432
a(S'Windranger'
p1433
F-0.109
g44
tp1434
a(g1325
F0.104
g11
tp1435
a(g1355
F0.025000000000000001
g11
tp1436
a(g1313
F0.047
g11
tp1437
a(g1399
F0.017999999999999999
g11
tp1438
a(S'Puck'
p1439
F-0.13500000000000001
g44
tp1440
a(g1294
F-0.02
g11
tp1441
a(g1334
F0.10299999999999999
g11
tp1442
a(g1342
F0.088999999999999996
g11
tp1443
a(g1406
F-0.014999999999999999
g11
tp1444
a(g1332
F0.017999999999999999
g11
tp1445
a(S'Doom'
p1446
F0.16300000000000001
g44
tp1447
a(S'Clinkz'
p1448
F0.051999999999999998
g11
tp1449
a(S'Earthshaker'
p1450
F-0.104
g11
tp1451
a(g1236
F-0.059999999999999998
g11
tp1452
a(g1278
F-0.014999999999999999
g11
tp1453
a(S'Viper'
p1454
F-0.16300000000000001
g44
tp1455
a(S'Dark Seer'
p1456
F-0.13800000000000001
g11
tp1457
a(g1418
F0.070999999999999994
g11
tp1458
a(S'Lone Druid'
p1459
F-0.068000000000000005
g11
tp1460
a(S'Lich'
p1461
F-0.13600000000000001
g11
tp1462
a(g1287
F-0.086999999999999994
g11
tp1463
a(S'Abaddon'
p1464
F0.16300000000000001
g44
tp1465
a(g1290
F-0.032000000000000001
g11
tp1466
a(g1376
F-0.115
g11
tp1467
a(S'Kunkka'
p1468
F0.125
g11
tp1469
a(g1412
F-0.033000000000000002
g11
tp1470
a(g1306
F0.17199999999999999
g44
tp1471
a(S'Queen of Pain'
p1472
F0.043999999999999997
g11
tp1473
a(S'Shadow Fiend'
p1474
F0.067000000000000004
g11
tp1475
a(S'Templar Assassin'
p1476
F0.13900000000000001
g11
tp1477
a(g1232
F-0.040000000000000001
g11
tp1478
asS'Leshrac'
p1479
(lp1480
(g1298
F0.071999999999999995
g11
tp1481
a(S'Shadow Demon'
p1482
F0.084000000000000005
g11
tp1483
asg1448
(lp1484
(g1284
F0.089999999999999997
g11
tp1485
a(g1234
F0.045999999999999999
g11
tp1486
a(g1239
F0.13300000000000001
g11
tp1487
a(g1337
F0.025999999999999999
g11
tp1488
asS'Anti-Mage'
p1489
(lp1490
(g1239
F-0.034000000000000002
g11
tp1491
asg1406
(lp1492
(g1284
F0.078
g11
tp1493
a(g1234
F-0.014
g11
tp1494
a(g1239
F-0.068000000000000005
g11
tp1495
a(g1242
F0.189
g44
tp1496
a(g1298
F-0.032000000000000001
g11
tp1497
a(g1244
F-0.217
g44
tp1498
asg1433
(lp1499
(g1234
F-0.041000000000000002
g11
tp1500
a(g1310
F-0.080000000000000002
g11
tp1501
a(g1329
F0.0040000000000000001
g11
tp1502
a(g1332
F0.13800000000000001
g11
tp1503
a(g1239
F0.064000000000000001
g11
tp1504
a(g1346
F-0.13400000000000001
g11
tp1505
a(g1244
F0.051999999999999998
g11
tp1506
a(g1251
F0.0060000000000000001
g11
tp1507
a(g1337
F0.016
g11
tp1508
a(g1298
F0.064000000000000001
g11
tp1509
a(g1461
F0.092999999999999999
g11
tp1510
a(S"Nature's Prophet"
F0.064000000000000001
g11
tp1511
asg1446
(lp1512
(g1234
F0.126
g11
tp1513
a(g1239
F-0.097000000000000003
g11
tp1514
a(g1251
F0.023
g11
tp1515
a(g1298
F0.029999999999999999
g11
tp1516
asg1456
(lp1517
(g1234
F0.0040000000000000001
g11
tp1518
a(g1239
F0.10199999999999999
g11
tp1519
asg1329
(lp1520
(g1234
F0.0070000000000000001
g11
tp1521
a(g1239
F0.035000000000000003
g11
tp1522
a(g1298
F0.0060000000000000001
g11
tp1523
a(g1284
F-0.13500000000000001
g44
tp1524
a(g1403
F0.108
g11
tp1525
a(g1242
F-0.058000000000000003
g11
tp1526
a(S"Nature's Prophet"
F0.053999999999999999
g11
tp1527
a(g1370
F0.10299999999999999
g11
tp1528
a(g1274
F0.067000000000000004
g11
tp1529
a(g1334
F0.098000000000000004
g11
tp1530
a(g1260
F-0.042000000000000003
g11
tp1531
a(g1244
F0.099000000000000005
g11
tp1532
a(g1399
F-0.065000000000000002
g11
tp1533
a(g1251
F-0.025000000000000001
g11
tp1534
a(g1337
F-0.027
g11
tp1535
a(g1339
F0.154
g11
tp1536
a(g1313
F0.14299999999999999
g11
tp1537
a(g1342
F-0.095000000000000001
g11
tp1538
a(g1376
F0.085000000000000006
g11
tp1539
asg1337
(lp1540
(g1234
F-0.032000000000000001
g11
tp1541
a(g1298
F0.042000000000000003
g11
tp1542
a(g1251
F-0.021999999999999999
g11
tp1543
a(g1239
F0.042999999999999997
g11
tp1544
a(S"Nature's Prophet"
F0.098000000000000004
g11
tp1545
a(g1253
F0.050999999999999997
g11
tp1546
a(g1284
F-0.053999999999999999
g11
tp1547
a(g1242
F0.0060000000000000001
g11
tp1548
a(g1244
F-0.045999999999999999
g11
tp1549
a(g1260
F-0.094
g11
tp1550
a(g1313
F0.085999999999999993
g11
tp1551
a(g1370
F-0.086999999999999994
g11
tp1552
a(g1258
F0.14799999999999999
g11
tp1553
a(g1264
F-0.0030000000000000001
g11
tp1554
a(g1403
F0.042000000000000003
g11
tp1555
a(S'Bounty Hunter'
p1556
F0.071999999999999995
g11
tp1557
a(g1262
F-0.090999999999999998
g11
tp1558
a(g1344
F0.079000000000000001
g11
tp1559
a(g1383
F0.067000000000000004
g11
tp1560
a(g1459
F-0.063
g11
tp1561
a(S'Clinkz'
p1562
F-0.01
g11
tp1563
a(g1342
F0.13300000000000001
g11
tp1564
asS'Batrider'
p1565
(lp1566
(g1239
F-0.012
g11
tp1567
a(g1242
F-0.043999999999999997
g11
tp1568
a(g1234
F-0.017000000000000001
g11
tp1569
a(g1251
F-0.082000000000000003
g11
tp1570
a(g1298
F-0.073999999999999996
g11
tp1571
a(g1253
F0.155
g11
tp1572
asg1472
(lp1573
(g1234
F0.11799999999999999
g11
tp1574
asg1355
(lp1575
(g1234
F-0.0040000000000000001
g11
tp1576
a(g1239
F0.075999999999999998
g11
tp1577
a(g1242
F0.073999999999999996
g11
tp1578
a(g1298
F0.017999999999999999
g11
tp1579
a(g1244
F-0.02
g11
tp1580
a(g1310
F-0.019
g11
tp1581
a(S"Nature's Prophet"
F0.050000000000000003
g11
tp1582
a(g1334
F0.085000000000000006
g11
tp1583
a(g1346
F-0.002
g11
tp1584
a(g1376
F-0.127
g11
tp1585
a(g1339
F-0.033000000000000002
g11
tp1586
a(g1264
F-0.002
g11
tp1587
a(g1251
F-0.066000000000000003
g11
tp1588
a(g1348
F0.067000000000000004
g11
tp1589
asg1310
(lp1590
(g1234
F-0.02
g11
tp1591
a(g1239
F-0.019
g11
tp1592
a(g1298
F0.0080000000000000002
g11
tp1593
a(g1251
F-0.023
g11
tp1594
a(g1242
F0.079000000000000001
g11
tp1595
a(g1334
F0.124
g44
tp1596
a(g1329
F-0.11899999999999999
g44
tp1597
a(g1260
F-0.11
g44
tp1598
a(g1346
F-0.033000000000000002
g11
tp1599
a(g1337
F0.025999999999999999
g11
tp1600
a(g1406
F0.115
g11
tp1601
a(g1274
F0.11
g11
tp1602
a(g1294
F-0.025000000000000001
g11
tp1603
a(g1403
F0.098000000000000004
g11
tp1604
a(g1313
F0.079000000000000001
g11
tp1605
a(g1264
F0.070999999999999994
g11
tp1606
a(g1348
F0.099000000000000005
g11
tp1607
a(g1448
F0.13400000000000001
g11
tp1608
a(g1383
F0.069000000000000006
g11
tp1609
a(g1376
F0.045999999999999999
g11
tp1610
a(g1272
F0.034000000000000002
g11
tp1611
a(g1266
F0.048000000000000001
g11
tp1612
a(g1342
F-0.036999999999999998
g11
tp1613
a(g1278
F-0.095000000000000001
g11
tp1614
a(g1308
F0.0030000000000000001
g11
tp1615
a(g1482
F-0.14299999999999999
g11
tp1616
a(S'Viper'
p1617
F-0.051999999999999998
g11
tp1618
asg1468
(lp1619
(g1234
F0.13900000000000001
g11
tp1620
asg1385
(lp1621
(g1234
F-0.025000000000000001
g11
tp1622
a(g1310
F-0.035999999999999997
g11
tp1623
a(g1337
F0.044999999999999998
g11
tp1624
a(g1239
F0.027
g11
tp1625
a(g1244
F-0.045999999999999999
g11
tp1626
a(g1332
F0.012999999999999999
g11
tp1627
a(g1383
F-0.02
g11
tp1628
a(g1278
F-0.096000000000000002
g11
tp1629
a(g1298
F0.063
g11
tp1630
a(g1461
F-0.033000000000000002
g11
tp1631
a(g1482
F-0.056000000000000001
g11
tp1632
a(S"Nature's Prophet"
F0.070000000000000007
g11
tp1633
a(g1294
F-0.092999999999999999
g11
tp1634
a(g1313
F0.056000000000000001
g11
tp1635
a(g1433
F-0.036999999999999998
g11
tp1636
a(g1339
F0.045999999999999999
g11
tp1637
a(g1446
F0.085000000000000006
g11
tp1638
a(g1439
F-0.084000000000000005
g11
tp1639
a(g1272
F0.088999999999999996
g11
tp1640
a(g1334
F0.0070000000000000001
g11
tp1641
a(g1329
F-0.021999999999999999
g11
tp1642
a(g1342
F-0.055
g11
tp1643
a(g1325
F0.051999999999999998
g11
tp1644
a(g1412
F-0.072999999999999995
g11
tp1645
a(g1355
F-0.012
g11
tp1646
a(g1346
F-0.085999999999999993
g11
tp1647
asg1346
(lp1648
(g1234
F-0.029999999999999999
g11
tp1649
a(g1242
F0.063
g11
tp1650
a(g1284
F-0.032000000000000001
g11
tp1651
a(g1337
F0.13200000000000001
g44
tp1652
a(g1239
F0.001
g11
tp1653
a(g1244
F0.043999999999999997
g11
tp1654
a(g1298
F0.053999999999999999
g11
tp1655
a(g1260
F-0.16300000000000001
g44
tp1656
a(g1464
F0.059999999999999998
g11
tp1657
a(g1339
F0.078
g11
tp1658
a(S"Nature's Prophet"
F-0.070999999999999994
g11
tp1659
a(g1266
F0.066000000000000003
g11
tp1660
a(g1334
F0.050999999999999997
g11
tp1661
a(g1272
F0.019
g11
tp1662
a(g1370
F-0.085999999999999993
g11
tp1663
a(g1342
F-0.001
g11
tp1664
a(g1403
F-0.035999999999999997
g11
tp1665
a(g1313
F0.035000000000000003
g11
tp1666
a(g1412
F0.17799999999999999
g11
tp1667
a(g1251
F-0.071999999999999995
g11
tp1668
asg1344
(lp1669
(g1234
F0.099000000000000005
g11
tp1670
a(g1249
F0.112
g11
tp1671
a(g1247
F-0.043999999999999997
g11
tp1672
a(g1242
F-0.060999999999999999
g11
tp1673
a(g1255
F0.109
g11
tp1674
a(g1403
F0.25800000000000001
g44
tp1675
asg1274
(lp1676
(g1310
F0.088999999999999996
g11
tp1677
a(g1251
F-0.041000000000000002
g11
tp1678
a(g1329
F0.062
g11
tp1679
a(g1234
F-0.11899999999999999
g11
tp1680
a(g1260
F0.042000000000000003
g11
tp1681
a(g1244
F-0.072999999999999995
g11
tp1682
a(g1370
F-0.058000000000000003
g11
tp1683
asg1339
(lp1684
(g1234
F0.089999999999999997
g11
tp1685
a(g1249
F-0.017000000000000001
g11
tp1686
a(g1247
F0.017999999999999999
g11
tp1687
a(g1264
F0.121
g11
tp1688
a(g1251
F-0.060999999999999999
g11
tp1689
a(g1253
F-0.042999999999999997
g11
tp1690
a(g1403
F0.14099999999999999
g11
tp1691
a(g1262
F0.050000000000000003
g11
tp1692
a(g1242
F-0.055
g11
tp1693
a(g1266
F-0.085999999999999993
g11
tp1694
asg1450
(lp1695
(g1234
F-0.059999999999999998
g11
tp1696
a(g1310
F0.040000000000000001
g11
tp1697
a(g1385
F0.108
g11
tp1698
a(g1244
F0.11600000000000001
g11
tp1699
a(g1346
F0.024
g11
tp1700
a(g1418
F0.121
g11
tp1701
asg1239
(lp1702
(g1284
F-0.076999999999999999
g11
tp1703
a(g1234
F-0.0040000000000000001
g11
tp1704
a(g1249
F-0.086999999999999994
g11
tp1705
a(g1262
F-0.0070000000000000001
g11
tp1706
a(S"Nature's Prophet"
F0.182
g44
tp1707
a(g1244
F-0.097000000000000003
g11
tp1708
a(g1251
F-0.017999999999999999
g11
tp1709
a(g1264
F0.056000000000000001
g11
tp1710
a(g1255
F0.065000000000000002
g11
tp1711
a(g1403
F0.108
g11
tp1712
a(g1242
F0.11700000000000001
g44
tp1713
a(g1266
F0.085000000000000006
g11
tp1714
a(S'Nyx Assassin'
p1715
F0.025999999999999999
g11
tp1716
a(g1370
F-0.024
g11
tp1717
a(g1253
F-0.058000000000000003
g11
tp1718
a(S'Invoker'
p1719
F0.017999999999999999
g11
tp1720
a(g1339
F0.080000000000000002
g11
tp1721
a(S'Lone Druid'
p1722
F0.071999999999999995
g11
tp1723
a(g1276
F-0.088999999999999996
g11
tp1724
a(S'Doom'
p1725
F-0.080000000000000002
g11
tp1726
a(g1260
F-0.024
g11
tp1727
a(g1565
F-0.048000000000000001
g11
tp1728
a(g1556
F-0.010999999999999999
g11
tp1729
a(S'Night Stalker'
p1730
F-0.062
g11
tp1731
a(g1270
F-0.091999999999999998
g11
tp1732
a(g1344
F-0.051999999999999998
g11
tp1733
a(g1348
F-0.024
g11
tp1734
a(S'Juggernaut'
p1735
F0.112
g11
tp1736
a(S'Outworld Devourer'
p1737
F-0.157
g11
tp1738
a(g1562
F0.11899999999999999
g11
tp1739
a(S'Enchantress'
p1740
F0.19
g44
tp1741
a(g1489
F-0.095000000000000001
g11
tp1742
a(S'Dark Seer'
p1743
F-0.059999999999999998
g11
tp1744
asg1722
(lp1745
(g1239
F0.068000000000000005
g11
tp1746
a(g1234
F-0.091999999999999998
g11
tp1747
a(g1255
F-0.044999999999999998
g11
tp1748
a(g1298
F0.079000000000000001
g11
tp1749
asg1439
(lp1750
(g1234
F-0.071999999999999995
g11
tp1751
a(g1239
F0.058999999999999997
g11
tp1752
a(g1329
F0.14399999999999999
g44
tp1753
a(S"Nature's Prophet"
F0.096000000000000002
g11
tp1754
a(g1298
F-0.041000000000000002
g11
tp1755
a(g1251
F-0.045999999999999999
g11
tp1756
a(g1337
F0.017999999999999999
g11
tp1757
a(g1332
F0.043999999999999997
g11
tp1758
a(g1346
F-0.062
g11
tp1759
a(g1461
F-0.012
g11
tp1760
asg1715
(lp1761
(g1239
F0.024
g11
tp1762
a(g1234
F0.067000000000000004
g11
tp1763
a(g1249
F-0.0070000000000000001
g11
tp1764
a(g1242
F0.079000000000000001
g11
tp1765
a(g1264
F0.14999999999999999
g11
tp1766
a(g1284
F-0.097000000000000003
g11
tp1767
a(g1251
F-0.10199999999999999
g11
tp1768
a(g1403
F0.184
g44
tp1769
a(S"Nature's Prophet"
F0.086999999999999994
g11
tp1770
a(g1262
F-0.13900000000000001
g11
tp1771
a(g1253
F-0.062
g11
tp1772
a(g1255
F0.153
g11
tp1773
asg1464
(lp1774
(g1253
F0.0050000000000000001
g11
tp1775
a(g1234
F0.14699999999999999
g11
tp1776
asg1476
(lp1777
(g1234
F0.086999999999999994
g11
tp1778
asg1399
(lp1779
(g1234
F-0.028000000000000001
g11
tp1780
a(g1242
F0.036999999999999998
g11
tp1781
a(g1239
F-0.036999999999999998
g11
tp1782
a(g1262
F-0.13300000000000001
g11
tp1783
a(g1298
F0.033000000000000002
g11
tp1784
a(g1337
F0.068000000000000005
g11
tp1785
asg1482
(lp1786
(g1251
F-0.051999999999999998
g11
tp1787
a(g1244
F-0.031
g11
tp1788
a(g1284
F-0.152
g11
tp1789
a(g1479
F0.060999999999999999
g11
tp1790
asg1408
(lp1791
(g1234
F0.014
g11
tp1792
a(g1239
F0.014999999999999999
g11
tp1793
a(g1298
F-0.071999999999999995
g11
tp1794
a(g1310
F-0.028000000000000001
g11
tp1795
a(S"Nature's Prophet"
F-0.074999999999999997
g11
tp1796
a(g1339
F0.14199999999999999
g11
tp1797
a(g1244
F0.01
g11
tp1798
a(g1242
F-0.027
g11
tp1799
a(g1342
F0.111
g11
tp1800
a(g1337
F-0.021999999999999999
g11
tp1801
a(g1334
F0.111
g11
tp1802
a(g1355
F-0.034000000000000002
g11
tp1803
a(g1376
F0.056000000000000001
g11
tp1804
asg1306
(lp1805
(g1304
F0.10100000000000001
g11
tp1806
a(g1234
F0.040000000000000001
g11
tp1807
asg1334
(lp1808
(g1284
F0.041000000000000002
g11
tp1809
a(g1298
F-0.0089999999999999993
g11
tp1810
a(g1234
F0.058000000000000003
g11
tp1811
a(g1262
F0.031
g11
tp1812
a(g1244
F0.065000000000000002
g11
tp1813
a(g1403
F0.050999999999999997
g11
tp1814
a(S"Nature's Prophet"
F-0.0080000000000000002
g11
tp1815
a(g1251
F-0.063
g11
tp1816
a(g1337
F0.14499999999999999
g11
tp1817
a(g1266
F0.069000000000000006
g11
tp1818
a(g1264
F0.127
g11
tp1819
a(g1253
F-0.033000000000000002
g11
tp1820
a(g1348
F0.0030000000000000001
g11
tp1821
a(g1294
F-0.10100000000000001
g11
tp1822
asg1298
(lp1823
(g1284
F-0.025999999999999999
g11
tp1824
a(g1239
F-0.063
g11
tp1825
a(S"Nature's Prophet"
F-0.047
g11
tp1826
a(g1255
F0.087999999999999995
g11
tp1827
a(g1262
F-0.012
g11
tp1828
a(g1244
F0.027
g11
tp1829
a(g1264
F-0.0070000000000000001
g11
tp1830
a(g1258
F0.040000000000000001
g11
tp1831
a(g1251
F0.042000000000000003
g11
tp1832
a(g1342
F0.019
g11
tp1833
a(g1253
F0.019
g11
tp1834
a(g1339
F0.069000000000000006
g11
tp1835
a(g1266
F0.050999999999999997
g11
tp1836
a(g1737
F-0.023
g11
tp1837
a(g1242
F0.105
g11
tp1838
a(g1344
F0.128
g11
tp1839
a(g1479
F0.024
g11
tp1840
a(g1348
F0.14999999999999999
g44
tp1841
a(g1370
F-0.10000000000000001
g11
tp1842
a(g1260
F0
g11
tp1843
a(g1556
F0.083000000000000004
g11
tp1844
a(g1719
F0.111
g11
tp1845
a(g1725
F0.070999999999999994
g11
tp1846
a(g1403
F0.10000000000000001
g11
tp1847
a(g1276
F-0.029000000000000001
g11
tp1848
a(g1617
F-0.13600000000000001
g11
tp1849
a(g1740
F-0.062
g11
tp1850
a(g1565
F-0.085999999999999993
g11
tp1851
a(g1722
F0.107
g11
tp1852
asg1376
(lp1853
(g1284
F-0.0080000000000000002
g11
tp1854
a(g1234
F-0.13100000000000001
g11
tp1855
a(S"Nature's Prophet"
F0.039
g11
tp1856
a(g1298
F-0.082000000000000003
g11
tp1857
a(g1266
F-0.114
g11
tp1858
a(g1262
F0.047
g11
tp1859
a(g1264
F0.10100000000000001
g11
tp1860
a(g1239
F0.19400000000000001
g44
tp1861
asg1454
(lp1862
(g1234
F-0.085000000000000006
g11
tp1863
a(g1298
F-0.062
g11
tp1864
a(g1310
F-0.012
g11
tp1865
assI680
g2
(g3
tRp1866
S'Disruptor'
p1867
(lp1868
(S'Batrider'
p1869
F0.078
g11
tp1870
a(S'Invoker'
p1871
F0.051999999999999998
g11
tp1872
a(S'Nyx Assassin'
p1873
F0.050000000000000003
g11
tp1874
a(S'Doom'
p1875
F0.037999999999999999
g11
tp1876
a(S'Luna'
p1877
F-0.02
g11
tp1878
a(S'Centaur Warrunner'
p1879
F0.0089999999999999993
g11
tp1880
asS'Dazzle'
p1881
(lp1882
(g1879
F-0.01
g11
tp1883
a(S'Batrider'
p1884
F0.024
g11
tp1885
a(S'Invoker'
p1886
F0.014999999999999999
g11
tp1887
a(S'Puck'
p1888
F-0.045999999999999999
g11
tp1889
a(g1877
F0.107
g11
tp1890
a(g1873
F-0.052999999999999999
g11
tp1891
a(S'Slardar'
p1892
F-0.014999999999999999
g11
tp1893
a(S'Mirana'
p1894
F0.19
g44
tp1895
a(S'Clockwerk'
p1896
F0.099000000000000005
g11
tp1897
a(S"Nature's Prophet"
F-0.033000000000000002
g11
tp1898
a(S'Doom'
p1899
F0.078
g11
tp1900
a(S'Ember Spirit'
p1901
F0.041000000000000002
g11
tp1902
a(S'Storm Spirit'
p1903
F0.076999999999999999
g11
tp1904
a(S'Naga Siren'
p1905
F-0.025999999999999999
g11
tp1906
a(S'Lifestealer'
p1907
F-0.037999999999999999
g11
tp1908
a(S'Shadow Shaman'
p1909
F-0.014999999999999999
g11
tp1910
a(S'Sand King'
p1911
F-0.0030000000000000001
g11
tp1912
a(S'Lycan'
p1913
F0.11
g11
tp1914
a(S'Dark Seer'
p1915
F0.035000000000000003
g11
tp1916
a(S'Visage'
p1917
F0.20300000000000001
g44
tp1918
a(S'Shadow Demon'
p1919
F0.152
g11
tp1920
a(S'Treant Protector'
p1921
F-0.029000000000000001
g11
tp1922
a(S'Chen'
p1923
F0.014
g11
tp1924
asS'Timbersaw'
p1925
(lp1926
(g1894
F0.14799999999999999
g44
tp1927
a(S'Crystal Maiden'
p1928
F0.16400000000000001
g44
tp1929
a(S'Rubick'
p1930
F-0.036999999999999998
g11
tp1931
asg1905
(lp1932
(g1894
F0.075999999999999998
g11
tp1933
a(S'Ancient Apparition'
p1934
F-0.037999999999999999
g11
tp1935
a(g1928
F0.036999999999999998
g11
tp1936
a(S'Nyx Assassin'
p1937
F0.070999999999999994
g11
tp1938
a(g1881
F-0.032000000000000001
g11
tp1939
a(g1869
F0.0050000000000000001
g11
tp1940
a(g1879
F0.10100000000000001
g11
tp1941
a(S'Clockwerk'
p1942
F0.128
g11
tp1943
a(g1888
F-0.049000000000000002
g11
tp1944
a(g1930
F0.050000000000000003
g11
tp1945
a(g1909
F-0.0070000000000000001
g11
tp1946
asS'Dragon Knight'
p1947
(lp1948
(S'Ancient Apparition'
p1949
F-0.068000000000000005
g11
tp1950
a(S'Rubick'
p1951
F-0.029000000000000001
g11
tp1952
a(S"Nature's Prophet"
F0
g11
tp1953
asS'Tiny'
p1954
(lp1955
(S'Io'
p1956
F-0.01
g11
tp1957
asS'Shadow Fiend'
p1958
(lp1959
(g1884
F0.085999999999999993
g11
tp1960
asg1871
(lp1961
(g1951
F0.031
g11
tp1962
a(g1934
F-0.064000000000000001
g11
tp1963
a(g1873
F0.028000000000000001
g11
tp1964
a(g1919
F0.0050000000000000001
g11
tp1965
a(g1881
F0.023
g11
tp1966
a(g1894
F0.18099999999999999
g44
tp1967
a(g1942
F0.0060000000000000001
g11
tp1968
a(g1909
F-0.043999999999999997
g11
tp1969
a(S"Nature's Prophet"
F0.0060000000000000001
g11
tp1970
a(g1879
F-0.034000000000000002
g11
tp1971
a(g1917
F0.035999999999999997
g11
tp1972
a(S'Bane'
p1973
F-0.029000000000000001
g11
tp1974
a(g1911
F0.044999999999999998
g11
tp1975
a(g1875
F0.034000000000000002
g11
tp1976
a(g1877
F0.042999999999999997
g11
tp1977
a(g1869
F0.01
g11
tp1978
a(S'Enchantress'
p1979
F0.064000000000000001
g11
tp1980
a(S'Chen'
p1981
F0.0030000000000000001
g11
tp1982
a(S'Lifestealer'
p1983
F-0.107
g11
tp1984
a(g1867
F0.035999999999999997
g11
tp1985
a(g1928
F0.028000000000000001
g11
tp1986
a(S'Vengeful Spirit'
p1987
F-0.068000000000000005
g11
tp1988
a(S'Dark Seer'
p1989
F0.11799999999999999
g11
tp1990
a(S'Venomancer'
p1991
F0.087999999999999995
g11
tp1992
a(S'Slark'
p1993
F-0.183
g44
tp1994
asg1903
(lp1995
(g1949
F0.037999999999999999
g11
tp1996
a(g1873
F0.123
g44
tp1997
a(g1907
F-0.028000000000000001
g11
tp1998
a(S'Dazzle'
p1999
F0.13
g11
tp2000
a(g1951
F-0.024
g11
tp2001
a(g1917
F-0.035999999999999997
g11
tp2002
a(S"Nature's Prophet"
F0.062
g11
tp2003
a(g1899
F0.050000000000000003
g11
tp2004
a(g1896
F0.064000000000000001
g11
tp2005
a(g1879
F-0.14599999999999999
g11
tp2006
a(g1884
F-0.044999999999999998
g11
tp2007
a(S'Luna'
p2008
F0.16700000000000001
g44
tp2009
a(S'Enchantress'
p2010
F-0.062
g11
tp2011
a(g1911
F0.0089999999999999993
g11
tp2012
a(S'Shadow Shaman'
p2013
F-0.021000000000000001
g11
tp2014
asg1913
(lp2015
(g1888
F-0.071999999999999995
g11
tp2016
a(g1951
F0.13600000000000001
g44
tp2017
a(g1881
F0.010999999999999999
g11
tp2018
a(S"Nature's Prophet"
F0.052999999999999999
g11
tp2019
a(g1869
F0.052999999999999999
g11
tp2020
a(g1909
F0.080000000000000002
g11
tp2021
a(g1934
F-0.014
g11
tp2022
asS"Nature's Prophet"
p2023
(lp2024
(g1951
F0.032000000000000001
g11
tp2025
a(g1949
F0.072999999999999995
g11
tp2026
a(g1886
F0.023
g11
tp2027
a(g1911
F-0.0080000000000000002
g11
tp2028
a(g1881
F-0.0080000000000000002
g11
tp2029
a(g1894
F-0.0089999999999999993
g11
tp2030
a(g1923
F-0.13
g11
tp2031
a(g1909
F0.14999999999999999
g44
tp2032
a(g1888
F-0.032000000000000001
g11
tp2033
a(g1873
F0.114
g11
tp2034
a(g1877
F-0.021999999999999999
g11
tp2035
a(g1917
F0.01
g11
tp2036
a(g1991
F0.044999999999999998
g11
tp2037
a(g1987
F0.01
g11
tp2038
a(g1903
F0.034000000000000002
g11
tp2039
a(g1973
F-0.124
g11
tp2040
a(g1919
F-0.027
g11
tp2041
a(g1907
F-0.050999999999999997
g11
tp2042
a(g1928
F-0.065000000000000002
g11
tp2043
a(g1901
F0.048000000000000001
g11
tp2044
a(g1913
F0.17699999999999999
g44
tp2045
a(g2010
F-0.0040000000000000001
g11
tp2046
a(g1947
F0.01
g11
tp2047
a(g1899
F0.025000000000000001
g11
tp2048
asg1991
(lp2049
(S"Nature's Prophet"
F0.039
g11
tp2050
a(g1949
F-0.057000000000000002
g11
tp2051
a(g1886
F0.099000000000000005
g11
tp2052
a(g1888
F0.14299999999999999
g11
tp2053
a(g1873
F0.063
g11
tp2054
asg1928
(lp2055
(S'Mirana'
p2056
F0.040000000000000001
g11
tp2057
a(g1905
F0.042000000000000003
g11
tp2058
a(g1884
F0.024
g11
tp2059
a(g1896
F0.0040000000000000001
g11
tp2060
a(g1886
F0.019
g11
tp2061
a(g1873
F0.055
g11
tp2062
a(S"Nature's Prophet"
F-0.090999999999999998
g11
tp2063
a(g1925
F0.0089999999999999993
g11
tp2064
a(g1917
F0.151
g11
tp2065
a(g1899
F0.084000000000000005
g11
tp2066
a(g1907
F-0.192
g44
tp2067
asg1973
(lp2068
(g2056
F0.096000000000000002
g44
tp2069
a(g1886
F-0.025999999999999999
g11
tp2070
a(g1884
F0.123
g11
tp2071
a(g1873
F-0.0040000000000000001
g11
tp2072
a(S'Puck'
p2073
F-0.059999999999999998
g11
tp2074
a(g1879
F-0.0040000000000000001
g11
tp2075
a(g1917
F0.11
g11
tp2076
a(S"Nature's Prophet"
F-0.13800000000000001
g11
tp2077
a(g1901
F0.070999999999999994
g11
tp2078
a(g1896
F-0.029999999999999999
g11
tp2079
a(g1907
F0.084000000000000005
g11
tp2080
asg1934
(lp2081
(g1951
F0.016
g11
tp2082
a(g1873
F0.017000000000000001
g11
tp2083
a(g1888
F0.050999999999999997
g11
tp2084
a(g1869
F0.080000000000000002
g11
tp2085
a(g1909
F0.108
g44
tp2086
a(g1886
F-0.044999999999999998
g11
tp2087
a(S"Nature's Prophet"
F0.074999999999999997
g11
tp2088
a(g1942
F0.029999999999999999
g11
tp2089
a(g1899
F0.048000000000000001
g11
tp2090
a(g1894
F0.078
g11
tp2091
a(g1911
F0.043999999999999997
g11
tp2092
a(g1879
F-0.058000000000000003
g11
tp2093
a(g1903
F0.012
g11
tp2094
a(g1983
F0.050000000000000003
g11
tp2095
a(g1901
F-0.028000000000000001
g11
tp2096
a(S'Weaver'
p2097
F-0.012999999999999999
g11
tp2098
a(g1905
F-0.0050000000000000001
g11
tp2099
a(g1877
F0.021000000000000001
g11
tp2100
a(g1987
F-0.035000000000000003
g11
tp2101
a(S'Morphling'
p2102
F0.050000000000000003
g11
tp2103
a(g1947
F-0.056000000000000001
g11
tp2104
a(g1991
F-0.049000000000000002
g11
tp2105
a(S'Templar Assassin'
p2106
F-0.012999999999999999
g11
tp2107
a(S'Spectre'
p2108
F-0.014
g11
tp2109
a(S'Faceless Void'
p2110
F-0.12
g11
tp2111
a(S'Viper'
p2112
F0.083000000000000004
g11
tp2113
a(g1913
F0.112
g11
tp2114
asg1899
(lp2115
(g1934
F0.021000000000000001
g11
tp2116
a(g1869
F0.095000000000000001
g11
tp2117
a(g1951
F-0.115
g44
tp2118
a(g1909
F0.070000000000000007
g11
tp2119
a(g1886
F0.025999999999999999
g11
tp2120
a(g1894
F0.068000000000000005
g11
tp2121
a(g1881
F0.078
g11
tp2122
a(g1873
F-0.064000000000000001
g11
tp2123
a(g1911
F-0.0050000000000000001
g11
tp2124
a(g1903
F-0.0030000000000000001
g11
tp2125
a(g1879
F-0.040000000000000001
g11
tp2126
a(g1979
F-0.115
g11
tp2127
a(g1888
F0.10000000000000001
g11
tp2128
a(g1917
F0.010999999999999999
g11
tp2129
a(g1919
F-0.218
g44
tp2130
a(g1928
F0.085000000000000006
g11
tp2131
a(g1867
F0.014
g11
tp2132
a(S"Nature's Prophet"
F0
g11
tp2133
asg1987
(lp2134
(g1949
F-0.056000000000000001
g11
tp2135
a(S"Nature's Prophet"
F-0.0089999999999999993
g11
tp2136
a(g1886
F-0.070000000000000007
g11
tp2137
a(g1884
F0.22800000000000001
g44
tp2138
asg1909
(lp2139
(g1879
F0.042999999999999997
g11
tp2140
a(g1949
F0.033000000000000002
g11
tp2141
a(g1884
F0.002
g11
tp2142
a(g1886
F-0.10000000000000001
g11
tp2143
a(g1873
F0.0080000000000000002
g11
tp2144
a(g1899
F0.021999999999999999
g11
tp2145
a(g1894
F0.13500000000000001
g44
tp2146
a(S"Nature's Prophet"
F0.076999999999999999
g11
tp2147
a(g2010
F0.126
g11
tp2148
a(g1888
F0.081000000000000003
g11
tp2149
a(g1907
F-0.111
g11
tp2150
a(g1999
F-0.063
g11
tp2151
a(g2008
F0.0080000000000000002
g11
tp2152
a(g1896
F-0.025999999999999999
g11
tp2153
a(g1951
F-0.037999999999999999
g11
tp2154
a(g1901
F-0.036999999999999998
g11
tp2155
a(g1913
F0.13100000000000001
g11
tp2156
a(g1923
F-0.035000000000000003
g11
tp2157
a(g1905
F-0.049000000000000002
g11
tp2158
a(g1903
F-0.122
g11
tp2159
asS'Sand King'
p2160
(lp2161
(g1894
F0.076999999999999999
g11
tp2162
a(g1949
F0.043999999999999997
g11
tp2163
a(g1886
F0.064000000000000001
g11
tp2164
a(g1884
F0.036999999999999998
g11
tp2165
a(S"Nature's Prophet"
F-0.0060000000000000001
g11
tp2166
a(g1879
F-0.087999999999999995
g11
tp2167
a(g1899
F0.021999999999999999
g11
tp2168
a(g1901
F0.001
g11
tp2169
a(g1919
F0.035000000000000003
g11
tp2170
a(g1888
F0.012
g11
tp2171
a(g1999
F0.024
g11
tp2172
a(g1873
F0.153
g44
tp2173
a(g1915
F-0.029000000000000001
g11
tp2174
a(S'Storm Spirit'
p2175
F-0.017000000000000001
g11
tp2176
a(g1896
F-0.13500000000000001
g11
tp2177
asg1989
(lp2178
(g1901
F0.078
g11
tp2179
a(g1886
F0.074999999999999997
g11
tp2180
a(g1881
F0
g11
tp2181
a(g1911
F-0.090999999999999998
g11
tp2182
asg1869
(lp2183
(g1951
F-0.0030000000000000001
g11
tp2184
a(g1949
F0.024
g11
tp2185
a(g1881
F-0.0050000000000000001
g11
tp2186
a(g1909
F0.021000000000000001
g11
tp2187
a(g1894
F0.22500000000000001
g44
tp2188
a(g1899
F0.066000000000000003
g11
tp2189
a(g1983
F-0.085999999999999993
g11
tp2190
a(g1877
F0.107
g11
tp2191
a(g1917
F0.056000000000000001
g11
tp2192
a(g1911
F-0.019
g11
tp2193
a(g1973
F0.083000000000000004
g11
tp2194
a(g1886
F-0.027
g11
tp2195
a(g1923
F0.044999999999999998
g11
tp2196
a(g1867
F0.025000000000000001
g11
tp2197
a(g1928
F-0.0040000000000000001
g11
tp2198
a(g2102
F-0.081000000000000003
g11
tp2199
a(g1888
F-0.019
g11
tp2200
a(g1987
F0.193
g44
tp2201
a(g1905
F-0.017999999999999999
g11
tp2202
a(g1873
F-0.058000000000000003
g11
tp2203
a(g1958
F0.105
g11
tp2204
a(g1913
F0.123
g11
tp2205
a(g1903
F-0.127
g11
tp2206
a(g1879
F-0.043999999999999997
g11
tp2207
a(g1901
F-0.155
g11
tp2208
a(g1979
F-0.17299999999999999
g44
tp2209
a(g2106
F0.014999999999999999
g11
tp2210
asg2108
(lp2211
(g1949
F0.019
g11
tp2212
asg1942
(lp2213
(g1949
F0.035000000000000003
g11
tp2214
a(g1886
F0.029999999999999999
g11
tp2215
a(g1917
F0.057000000000000002
g11
tp2216
a(g1881
F0.13100000000000001
g44
tp2217
a(g1877
F-0.0089999999999999993
g11
tp2218
a(g1928
F0.036999999999999998
g11
tp2219
a(g1951
F-0.108
g11
tp2220
a(g1894
F0.049000000000000002
g11
tp2221
a(g1901
F0.074999999999999997
g11
tp2222
a(g1909
F0.053999999999999999
g11
tp2223
a(g1903
F0.042999999999999997
g11
tp2224
a(g1973
F-0.0089999999999999993
g11
tp2225
a(g1888
F-0.078
g11
tp2226
a(g1905
F0.16600000000000001
g44
tp2227
a(g1919
F0.017000000000000001
g11
tp2228
a(g1911
F-0.13
g11
tp2229
asg1993
(lp2230
(g1871
F-0.098000000000000004
g11
tp2231
asg2110
(lp2232
(g1949
F-0.096000000000000002
g11
tp2233
asg2056
(lp2234
(g1973
F0.001
g11
tp2235
a(g1919
F-0.025000000000000001
g11
tp2236
a(g2160
F-0.034000000000000002
g11
tp2237
a(g1949
F-0.033000000000000002
g11
tp2238
a(g1886
F0.088999999999999996
g11
tp2239
a(g1884
F0.17000000000000001
g44
tp2240
a(g1905
F-0.002
g11
tp2241
a(g1879
F-0.042000000000000003
g11
tp2242
a(g1917
F0.047
g11
tp2243
a(g2013
F0.099000000000000005
g11
tp2244
a(g1928
F-0.042999999999999997
g11
tp2245
a(g1951
F-0.0089999999999999993
g11
tp2246
a(g1999
F0.106
g11
tp2247
a(g1899
F-0.016
g11
tp2248
a(g1873
F0.044999999999999998
g11
tp2249
a(g2073
F-0.028000000000000001
g11
tp2250
a(g1925
F-0.089999999999999997
g11
tp2251
a(S"Nature's Prophet"
F-0.11799999999999999
g11
tp2252
a(g1901
F0.068000000000000005
g11
tp2253
a(g1923
F0.068000000000000005
g11
tp2254
a(g1896
F-0.067000000000000004
g11
tp2255
a(g1907
F-0.075999999999999998
g11
tp2256
a(S'Earthshaker'
p2257
F-0.028000000000000001
g11
tp2258
asg2097
(lp2259
(g1949
F0.017000000000000001
g11
tp2260
a(g1873
F0.113
g11
tp2261
asS'Treant Protector'
p2262
(lp2263
(g1901
F0.151
g11
tp2264
a(g1881
F-0.02
g11
tp2265
asg1983
(lp2266
(g1884
F-0.001
g11
tp2267
a(g1949
F0.079000000000000001
g11
tp2268
a(g1951
F-0.024
g11
tp2269
a(g1903
F-0.025000000000000001
g11
tp2270
a(g1888
F0.050000000000000003
g11
tp2271
a(g1873
F0.11
g11
tp2272
a(g1886
F-0.058999999999999997
g11
tp2273
a(g1917
F-0.014999999999999999
g11
tp2274
a(g1894
F0.064000000000000001
g11
tp2275
a(g1881
F0.017999999999999999
g11
tp2276
a(g1909
F-0.0070000000000000001
g11
tp2277
a(S"Nature's Prophet"
F-0.02
g11
tp2278
a(g1928
F-0.13500000000000001
g11
tp2279
a(g1879
F-0.106
g11
tp2280
a(g1973
F0.129
g11
tp2281
asg2257
(lp2282
(g2056
F0.090999999999999998
g11
tp2283
asg1917
(lp2284
(g1888
F-0.0060000000000000001
g11
tp2285
a(g1871
F0.023
g11
tp2286
a(g1894
F0.126
g44
tp2287
a(g1930
F-0.082000000000000003
g11
tp2288
a(g1942
F0.02
g11
tp2289
a(g1937
F0.0040000000000000001
g11
tp2290
a(g1869
F0.080000000000000002
g11
tp2291
a(g1877
F-0.0030000000000000001
g11
tp2292
a(g1879
F-0.048000000000000001
g11
tp2293
a(g1903
F-0.094
g11
tp2294
a(g1983
F-0.075999999999999998
g11
tp2295
a(S"Nature's Prophet"
F-0.02
g11
tp2296
a(g1973
F0.094
g11
tp2297
a(g1881
F0.19800000000000001
g44
tp2298
a(g1875
F0.0060000000000000001
g11
tp2299
a(g1928
F0.14699999999999999
g11
tp2300
asg1901
(lp2301
(g1934
F-0.075999999999999998
g11
tp2302
a(g1930
F-0.122
g11
tp2303
a(g1881
F0.02
g11
tp2304
a(g1894
F0.13100000000000001
g44
tp2305
a(S'Centaur Warrunner'
p2306
F0.021999999999999999
g11
tp2307
a(g1911
F-0.047
g11
tp2308
a(g1942
F0.021999999999999999
g11
tp2309
a(g1989
F0.091999999999999998
g11
tp2310
a(g1973
F0.039
g11
tp2311
a(g1937
F-0.049000000000000002
g11
tp2312
a(S"Nature's Prophet"
F0.002
g11
tp2313
a(g1909
F-0.01
g11
tp2314
a(g1869
F-0.14699999999999999
g11
tp2315
a(S'Shadow Demon'
p2316
F0.074999999999999997
g11
tp2317
a(g2262
F0.121
g11
tp2318
asg1892
(lp2319
(g1999
F-0.0070000000000000001
g11
tp2320
asg1888
(lp2321
(g1949
F0.039
g11
tp2322
a(g1999
F-0.031
g11
tp2323
a(g1917
F0.014
g11
tp2324
a(g1951
F0.070999999999999994
g11
tp2325
a(g1913
F0.042000000000000003
g11
tp2326
a(g1894
F0.070999999999999994
g11
tp2327
a(g2008
F0.053999999999999999
g11
tp2328
a(g1879
F-0.0089999999999999993
g11
tp2329
a(g1907
F0.0089999999999999993
g11
tp2330
a(S"Nature's Prophet"
F-0.042000000000000003
g11
tp2331
a(g1873
F-0.056000000000000001
g11
tp2332
a(g2013
F0.14399999999999999
g44
tp2333
a(g1973
F-0.056000000000000001
g11
tp2334
a(g2160
F0
g11
tp2335
a(g1884
F0.025000000000000001
g11
tp2336
a(g1899
F0.115
g11
tp2337
a(g1896
F-0.095000000000000001
g11
tp2338
a(S'Venomancer'
p2339
F0.13900000000000001
g11
tp2340
a(g1905
F-0.028000000000000001
g11
tp2341
a(g1923
F-0.129
g11
tp2342
a(g1919
F-0.058999999999999997
g11
tp2343
asg1873
(lp2344
(g1934
F-0.0080000000000000002
g11
tp2345
a(g1871
F0.021999999999999999
g11
tp2346
a(g1930
F-0.040000000000000001
g11
tp2347
a(g1909
F0.058000000000000003
g11
tp2348
a(g1877
F0.048000000000000001
g11
tp2349
a(g1903
F0.071999999999999995
g11
tp2350
a(g1881
F-0.050999999999999997
g11
tp2351
a(g1917
F0.010999999999999999
g11
tp2352
a(g1894
F0.13100000000000001
g44
tp2353
a(g2316
F-0.021999999999999999
g11
tp2354
a(g1875
F-0.062
g11
tp2355
a(g1983
F0.056000000000000001
g11
tp2356
a(g1905
F0.079000000000000001
g11
tp2357
a(g2097
F0.058000000000000003
g11
tp2358
a(g1979
F-0.0030000000000000001
g11
tp2359
a(S"Nature's Prophet"
F0.090999999999999998
g11
tp2360
a(g1973
F-0.012999999999999999
g11
tp2361
a(g1888
F-0.069000000000000006
g11
tp2362
a(g1981
F0.044999999999999998
g11
tp2363
a(g1928
F0.058000000000000003
g11
tp2364
a(g2102
F-0.14699999999999999
g44
tp2365
a(g1901
F-0.025999999999999999
g11
tp2366
a(g1911
F0.128
g11
tp2367
a(g1869
F-0.027
g11
tp2368
a(S'Disruptor'
p2369
F0.028000000000000001
g11
tp2370
a(g1991
F0.045999999999999999
g11
tp2371
asg2106
(lp2372
(g1949
F-0.056000000000000001
g11
tp2373
a(g1884
F0.028000000000000001
g11
tp2374
asg2102
(lp2375
(g1949
F0.124
g11
tp2376
a(g1873
F-0.048000000000000001
g11
tp2377
a(g1884
F0.049000000000000002
g11
tp2378
a(g1951
F0.014999999999999999
g11
tp2379
asg1919
(lp2380
(g1894
F0.099000000000000005
g11
tp2381
a(g1871
F0.036999999999999998
g11
tp2382
a(g1873
F0.016
g11
tp2383
a(g1879
F0.025000000000000001
g11
tp2384
a(g1877
F-0.045999999999999999
g11
tp2385
a(g1911
F0.048000000000000001
g11
tp2386
a(S"Nature's Prophet"
F-0.012
g11
tp2387
a(g1875
F-0.17799999999999999
g44
tp2388
a(g1881
F0.192
g44
tp2389
a(g1901
F0.13600000000000001
g11
tp2390
a(g1942
F0.025000000000000001
g11
tp2391
a(g1888
F-0.034000000000000002
g11
tp2392
asg1877
(lp2393
(g1999
F0.076999999999999999
g11
tp2394
a(g1873
F0.016
g11
tp2395
a(g1884
F0.106
g11
tp2396
a(g1886
F0.0050000000000000001
g11
tp2397
a(g1917
F-0.028000000000000001
g11
tp2398
a(g1896
F-0.070999999999999994
g11
tp2399
a(g1888
F0.0089999999999999993
g11
tp2400
a(g1951
F0.036999999999999998
g11
tp2401
a(g1949
F-0.035999999999999997
g11
tp2402
a(g1923
F0.070000000000000007
g11
tp2403
a(g1919
F-0.11600000000000001
g11
tp2404
a(S"Nature's Prophet"
F-0.076999999999999999
g11
tp2405
a(g1909
F0.025999999999999999
g11
tp2406
a(g1879
F-0.0070000000000000001
g11
tp2407
a(g1903
F0.084000000000000005
g11
tp2408
a(g1867
F-0.073999999999999996
g11
tp2409
a(g2010
F0.031
g11
tp2410
asg1956
(lp2411
(g1954
F0.107
g11
tp2412
asg1923
(lp2413
(g1869
F0.084000000000000005
g11
tp2414
a(g1877
F0.11
g11
tp2415
a(g1886
F0.0050000000000000001
g11
tp2416
a(S"Nature's Prophet"
F-0.14499999999999999
g44
tp2417
a(g1894
F0.16200000000000001
g44
tp2418
a(g1873
F0.052999999999999999
g11
tp2419
a(g1879
F0.154
g44
tp2420
a(g1909
F0.023
g11
tp2421
a(g1888
F-0.13400000000000001
g11
tp2422
a(g1881
F0.024
g11
tp2423
asg1879
(lp2424
(g1881
F-0.0060000000000000001
g11
tp2425
a(g1909
F0.095000000000000001
g44
tp2426
a(g1930
F-0.023
g11
tp2427
a(g1934
F-0.081000000000000003
g11
tp2428
a(g1871
F-0.037999999999999999
g11
tp2429
a(g1894
F0.045999999999999999
g11
tp2430
a(g1888
F-0.02
g11
tp2431
a(g1911
F-0.111
g11
tp2432
a(S'Visage'
p2433
F-0.039
g11
tp2434
a(g1901
F0.047
g11
tp2435
a(g2316
F-0.010999999999999999
g11
tp2436
a(g1973
F-0.010999999999999999
g11
tp2437
a(g1981
F0.14799999999999999
g44
tp2438
a(g1875
F-0.035999999999999997
g11
tp2439
a(g1877
F0.027
g11
tp2440
a(g1903
F-0.19500000000000001
g44
tp2441
a(S'Naga Siren'
p2442
F0.111
g11
tp2443
a(g1869
F-0.010999999999999999
g11
tp2444
a(g1983
F-0.158
g11
tp2445
a(g2369
F-0.010999999999999999
g11
tp2446
asg1951
(lp2447
(g1871
F0.041000000000000002
g11
tp2448
a(g1934
F0.0070000000000000001
g11
tp2449
a(g1869
F0.043999999999999997
g11
tp2450
a(g2023
F0.025000000000000001
g11
tp2451
a(g1879
F-0.0089999999999999993
g11
tp2452
a(g1875
F-0.097000000000000003
g11
tp2453
a(g1873
F-0.024
g11
tp2454
a(g1917
F-0.058999999999999997
g11
tp2455
a(g1888
F0.073999999999999996
g11
tp2456
a(g1983
F-0.062
g11
tp2457
a(g1894
F0.092999999999999999
g11
tp2458
a(g1901
F-0.083000000000000004
g11
tp2459
a(g1877
F0.085000000000000006
g11
tp2460
a(S'Lycan'
p2461
F0.253
g44
tp2462
a(g1942
F-0.122
g11
tp2463
a(g1903
F-0.058999999999999997
g11
tp2464
a(g1909
F0.028000000000000001
g11
tp2465
a(g1905
F0.073999999999999996
g11
tp2466
a(g2112
F-0.068000000000000005
g11
tp2467
a(g2102
F-0.068000000000000005
g11
tp2468
a(g1947
F-0.025999999999999999
g11
tp2469
a(g1925
F-0.17299999999999999
g44
tp2470
asg1979
(lp2471
(g1886
F0.072999999999999995
g11
tp2472
a(g1873
F0.012
g11
tp2473
a(g1909
F0.191
g44
tp2474
a(g1899
F-0.098000000000000004
g11
tp2475
a(g1884
F-0.127
g11
tp2476
a(S"Nature's Prophet"
F-0.012
g11
tp2477
a(g1903
F-0.098000000000000004
g11
tp2478
a(g1877
F0.078
g11
tp2479
asg2112
(lp2480
(g1949
F0.13
g11
tp2481
a(g1951
F-0.012
g11
tp2482
assI681
g2
(g3
tRp2483
S'Razor'
p2484
(lp2485
(S'Skywrath Mage'
p2486
F-0.060999999999999999
g11
tp2487
a(S'Shadow Shaman'
p2488
F0.056000000000000001
g11
tp2489
a(S'Rubick'
p2490
F0.012
g11
tp2491
a(S'Mirana'
p2492
F0.113
g44
tp2493
a(S'Centaur Warrunner'
p2494
F-0.034000000000000002
g11
tp2495
a(S'Faceless Void'
p2496
F-0.099000000000000005
g11
tp2497
a(S"Nature's Prophet"
F0.17100000000000001
g44
tp2498
a(S'Wraith King'
p2499
F0.14499999999999999
g44
tp2500
a(S'Tidehunter'
p2501
F-0.035999999999999997
g11
tp2502
a(S'Doom'
p2503
F0.025000000000000001
g11
tp2504
a(S'Sand King'
p2505
F0.11899999999999999
g44
tp2506
a(S'Shadow Demon'
p2507
F0.025000000000000001
g11
tp2508
a(S'Earthshaker'
p2509
F-0.13900000000000001
g44
tp2510
a(S'Brewmaster'
p2511
F-0.021999999999999999
g11
tp2512
a(S'Enigma'
p2513
F-0.039
g11
tp2514
a(S'Batrider'
p2515
F-0.0050000000000000001
g11
tp2516
a(S'Ancient Apparition'
p2517
F-0.048000000000000001
g11
tp2518
a(S'Invoker'
p2519
F-0.086999999999999994
g11
tp2520
asS'Dazzle'
p2521
(lp2522
(g2507
F0.021999999999999999
g11
tp2523
a(g2494
F-0.083000000000000004
g11
tp2524
a(g2519
F-0.064000000000000001
g11
tp2525
a(g2503
F0.109
g11
tp2526
a(S'Dark Seer'
p2527
F-0.0040000000000000001
g11
tp2528
asS'Naga Siren'
p2529
(lp2530
(g2492
F0.010999999999999999
g11
tp2531
asS'Disruptor'
p2532
(lp2533
(S'Doom'
p2534
F0.113
g11
tp2535
a(g2492
F0.11799999999999999
g11
tp2536
a(S'Batrider'
p2537
F0.123
g11
tp2538
asS'Dragon Knight'
p2539
(lp2540
(g2492
F0.017999999999999999
g11
tp2541
a(g2517
F0.0070000000000000001
g11
tp2542
a(g2515
F-0.047
g11
tp2543
a(S'Sand King'
p2544
F0.0050000000000000001
g11
tp2545
asS'Tiny'
p2546
(lp2547
(S'Io'
p2548
F0.014
g11
tp2549
asg2519
(lp2550
(g2492
F0
g11
tp2551
a(g2507
F-0.035000000000000003
g11
tp2552
a(g2490
F-0.035000000000000003
g11
tp2553
a(S'Shadow Shaman'
p2554
F-0.032000000000000001
g11
tp2555
a(S'Faceless Void'
p2556
F-0.039
g11
tp2557
a(S'Wraith King'
p2558
F0.001
g11
tp2559
a(g2494
F0.014
g11
tp2560
a(g2534
F0.012999999999999999
g11
tp2561
a(g2544
F-0.032000000000000001
g11
tp2562
a(S'Ancient Apparition'
p2563
F-0.057000000000000002
g11
tp2564
a(S'Treant Protector'
p2565
F0.074999999999999997
g11
tp2566
a(S'Enchantress'
p2567
F-0.014
g11
tp2568
a(g2521
F-0.086999999999999994
g11
tp2569
a(g2486
F0.13900000000000001
g44
tp2570
a(S'Tidehunter'
p2571
F-0.021999999999999999
g11
tp2572
a(S"Nature's Prophet"
F-0.025999999999999999
g11
tp2573
a(S'Lich'
p2574
F0.035999999999999997
g11
tp2575
a(S'Weaver'
p2576
F0.055
g11
tp2577
a(g2537
F-0.094
g11
tp2578
a(S'Clockwerk'
p2579
F0.097000000000000003
g11
tp2580
a(S'Nyx Assassin'
p2581
F-0.0060000000000000001
g11
tp2582
a(g2484
F-0.039
g11
tp2583
asS'Lycan'
p2584
(lp2585
(g2490
F0.056000000000000001
g11
tp2586
a(S'Puck'
p2587
F-0.028000000000000001
g11
tp2588
a(g2492
F0.045999999999999999
g11
tp2589
a(g2554
F-0.050000000000000003
g11
tp2590
asS"Nature's Prophet"
p2591
(lp2592
(g2490
F0.016
g11
tp2593
a(g2554
F0.019
g11
tp2594
a(g2511
F0.052999999999999999
g11
tp2595
a(g2486
F-0.037999999999999999
g11
tp2596
a(g2492
F0.059999999999999998
g11
tp2597
a(g2517
F-0.021000000000000001
g11
tp2598
a(g2544
F-0.002
g11
tp2599
a(S'Viper'
p2600
F0.023
g11
tp2601
a(g2484
F0.16
g44
tp2602
a(g2558
F0.01
g11
tp2603
a(g2507
F-0.033000000000000002
g11
tp2604
a(g2519
F-0.085000000000000006
g11
tp2605
a(S'Vengeful Spirit'
p2606
F0.035999999999999997
g11
tp2607
a(g2503
F-0.042000000000000003
g11
tp2608
a(g2509
F-0.050999999999999997
g11
tp2609
a(g2565
F0.056000000000000001
g11
tp2610
a(S'Ember Spirit'
p2611
F-0.129
g44
tp2612
a(S'Enigma'
p2613
F-0.002
g11
tp2614
a(S'Enchantress'
p2615
F-0.033000000000000002
g11
tp2616
a(g2556
F0.0089999999999999993
g11
tp2617
a(S'Jakiro'
p2618
F0.02
g11
tp2619
asg2618
(lp2620
(S'Death Prophet'
p2621
F0.17399999999999999
g44
tp2622
a(S"Nature's Prophet"
F0.11899999999999999
g11
tp2623
a(g2571
F0.034000000000000002
g11
tp2624
asS'Death Prophet'
p2625
(lp2626
(g2554
F0.052999999999999999
g11
tp2627
a(g2486
F-0.001
g11
tp2628
a(g2571
F-0.025999999999999999
g11
tp2629
a(g2556
F0.044999999999999998
g11
tp2630
a(g2509
F0.062
g11
tp2631
a(g2492
F0.13400000000000001
g44
tp2632
a(g2494
F-0.028000000000000001
g11
tp2633
a(g2618
F0.039
g11
tp2634
a(g2490
F0.010999999999999999
g11
tp2635
a(g2558
F-0.0060000000000000001
g11
tp2636
asS'Leshrac'
p2637
(lp2638
(g2507
F-0.075999999999999998
g11
tp2639
asS'Bane'
p2640
(lp2641
(S'Mirana'
p2642
F0.086999999999999994
g11
tp2643
asg2613
(lp2644
(g2486
F-0.049000000000000002
g11
tp2645
a(g2484
F-0.073999999999999996
g11
tp2646
a(g2492
F0.115
g11
tp2647
a(g2571
F0.0030000000000000001
g11
tp2648
a(S"Nature's Prophet"
F-0.025999999999999999
g11
tp2649
asS'Tinker'
p2650
(lp2651
(g2492
F0.051999999999999998
g11
tp2652
a(g2486
F0.023
g11
tp2653
a(g2496
F0.035999999999999997
g11
tp2654
asS'Drow Ranger'
p2655
(lp2656
(S'Visage'
p2657
F0.080000000000000002
g11
tp2658
asg2563
(lp2659
(g2490
F0.042999999999999997
g11
tp2660
a(g2494
F0.050000000000000003
g11
tp2661
a(g2558
F0.071999999999999995
g11
tp2662
a(g2503
F0.057000000000000002
g11
tp2663
a(g2544
F-0.028000000000000001
g11
tp2664
a(g2492
F0.050999999999999997
g11
tp2665
a(g2537
F0.027
g11
tp2666
a(S"Nature's Prophet"
F0.027
g11
tp2667
a(g2511
F-0.059999999999999998
g11
tp2668
a(g2519
F-0.068000000000000005
g11
tp2669
a(g2556
F-0.012999999999999999
g11
tp2670
a(g2587
F-0.065000000000000002
g11
tp2671
a(g2571
F0.041000000000000002
g11
tp2672
a(g2484
F-0.010999999999999999
g11
tp2673
a(g2576
F-0.042999999999999997
g11
tp2674
a(g2600
F0.043999999999999997
g11
tp2675
a(S'Dragon Knight'
p2676
F-0.0050000000000000001
g11
tp2677
a(S'Dark Seer'
p2678
F0.0050000000000000001
g11
tp2679
a(S'Morphling'
p2680
F0.111
g11
tp2681
asg2534
(lp2682
(g2490
F0.014
g11
tp2683
a(g2554
F0.010999999999999999
g11
tp2684
a(g2492
F0.095000000000000001
g44
tp2685
a(g2563
F-0.0089999999999999993
g11
tp2686
a(g2486
F-0.084000000000000005
g11
tp2687
a(g2565
F0.079000000000000001
g11
tp2688
a(g2507
F-0.057000000000000002
g11
tp2689
a(g2519
F-0.064000000000000001
g11
tp2690
a(g2509
F0.024
g11
tp2691
a(g2600
F-0.107
g11
tp2692
a(g2511
F0.184
g44
tp2693
a(g2587
F-0.012999999999999999
g11
tp2694
a(g2484
F-0.0040000000000000001
g11
tp2695
a(g2606
F0.02
g11
tp2696
a(g2537
F-0.027
g11
tp2697
a(g2611
F-0.001
g11
tp2698
a(g2494
F-0.13400000000000001
g44
tp2699
a(g2544
F-0.025999999999999999
g11
tp2700
a(S"Nature's Prophet"
F-0.059999999999999998
g11
tp2701
a(g2558
F0.13400000000000001
g44
tp2702
a(g2532
F0.090999999999999998
g11
tp2703
a(g2521
F0.0089999999999999993
g11
tp2704
asg2606
(lp2705
(g2503
F0.095000000000000001
g11
tp2706
a(g2511
F0.0070000000000000001
g11
tp2707
a(S"Nature's Prophet"
F0.092999999999999999
g11
tp2708
a(g2492
F0.095000000000000001
g11
tp2709
a(g2486
F-0.156
g44
tp2710
a(g2494
F-0.10100000000000001
g11
tp2711
asg2494
(lp2712
(g2554
F-0.040000000000000001
g11
tp2713
a(S'Shadow Demon'
p2714
F-0.082000000000000003
g11
tp2715
a(g2492
F0.069000000000000006
g11
tp2716
a(g2486
F0.075999999999999998
g11
tp2717
a(g2600
F0.01
g11
tp2718
a(g2563
F0.070000000000000007
g11
tp2719
a(S'Rubick'
p2720
F0.106
g44
tp2721
a(g2484
F0.023
g11
tp2722
a(S'Invoker'
p2723
F0.023
g11
tp2724
a(S'Treant Protector'
p2725
F0.059999999999999998
g11
tp2726
a(g2544
F0.112
g44
tp2727
a(g2521
F-0.097000000000000003
g11
tp2728
a(S'Io'
p2729
F0.0030000000000000001
g11
tp2730
a(g2621
F0.075999999999999998
g11
tp2731
a(g2534
F-0.048000000000000001
g11
tp2732
a(g2509
F-0.025999999999999999
g11
tp2733
a(g2574
F0.079000000000000001
g11
tp2734
a(S'Brewmaster'
p2735
F-0.019
g11
tp2736
a(g2680
F0.064000000000000001
g11
tp2737
a(g2611
F-0.076999999999999999
g11
tp2738
a(g2558
F0.044999999999999998
g11
tp2739
a(g2587
F0.044999999999999998
g11
tp2740
a(g2606
F-0.089999999999999997
g11
tp2741
a(g2576
F-0.027
g11
tp2742
asg2565
(lp2743
(g2492
F0.065000000000000002
g11
tp2744
a(g2534
F0.064000000000000001
g11
tp2745
a(g2494
F-0.041000000000000002
g11
tp2746
a(g2490
F0.039
g11
tp2747
a(g2723
F-0.017000000000000001
g11
tp2748
a(g2587
F0.040000000000000001
g11
tp2749
a(g2600
F0.016
g11
tp2750
a(S"Nature's Prophet"
F0.023
g11
tp2751
a(g2571
F0.034000000000000002
g11
tp2752
a(g2678
F-0.039
g11
tp2753
a(S'Witch Doctor'
p2754
F0.042000000000000003
g11
tp2755
a(g2714
F-0.126
g11
tp2756
asg2505
(lp2757
(g2492
F0.055
g11
tp2758
a(g2517
F-0.021999999999999999
g11
tp2759
a(S"Nature's Prophet"
F0.051999999999999998
g11
tp2760
a(S'Viper'
p2761
F-0.023
g11
tp2762
a(g2494
F0.098000000000000004
g11
tp2763
a(g2519
F-0.036999999999999998
g11
tp2764
a(g2486
F0.068000000000000005
g11
tp2765
a(g2527
F-0.068000000000000005
g11
tp2766
a(g2515
F0.021000000000000001
g11
tp2767
a(g2507
F-0.064000000000000001
g11
tp2768
a(g2484
F0.16200000000000001
g44
tp2769
a(g2503
F0.045999999999999999
g11
tp2770
a(g2511
F0.082000000000000003
g11
tp2771
a(g2490
F-0.016
g11
tp2772
a(g2587
F-0.089999999999999997
g11
tp2773
a(g2501
F-0.025999999999999999
g11
tp2774
a(g2680
F0.098000000000000004
g11
tp2775
a(g2496
F0.001
g11
tp2776
a(g2539
F-0.001
g11
tp2777
asg2527
(lp2778
(g2492
F0.045999999999999999
g11
tp2779
a(g2490
F0.014
g11
tp2780
a(g2544
F-0.037999999999999999
g11
tp2781
a(g2558
F0.087999999999999995
g11
tp2782
a(g2507
F-0.0050000000000000001
g11
tp2783
a(g2565
F0.078
g11
tp2784
a(g2517
F0.041000000000000002
g11
tp2785
a(g2548
F-0.041000000000000002
g11
tp2786
a(g2521
F-0.002
g11
tp2787
asg2537
(lp2788
(g2490
F-0.017000000000000001
g11
tp2789
a(g2492
F0.13200000000000001
g44
tp2790
a(g2486
F-0.13600000000000001
g44
tp2791
a(g2554
F-0.0089999999999999993
g11
tp2792
a(g2517
F-0.0089999999999999993
g11
tp2793
a(g2558
F0.041000000000000002
g11
tp2794
a(g2511
F-0.091999999999999998
g11
tp2795
a(g2544
F-0.021000000000000001
g11
tp2796
a(g2507
F0.060999999999999999
g11
tp2797
a(g2503
F0.0030000000000000001
g11
tp2798
a(g2484
F-0.0040000000000000001
g11
tp2799
a(g2600
F-0.012
g11
tp2800
a(g2509
F-0.098000000000000004
g11
tp2801
a(g2519
F-0.14099999999999999
g44
tp2802
a(g2676
F-0.095000000000000001
g11
tp2803
a(g2532
F0.13100000000000001
g11
tp2804
asg2511
(lp2805
(g2492
F0.079000000000000001
g11
tp2806
a(g2554
F-0.024
g11
tp2807
a(S"Nature's Prophet"
F0.073999999999999996
g11
tp2808
a(g2486
F0.087999999999999995
g11
tp2809
a(g2490
F-0.027
g11
tp2810
a(g2507
F-0.0060000000000000001
g11
tp2811
a(g2563
F-0.086999999999999994
g11
tp2812
a(g2537
F-0.083000000000000004
g11
tp2813
a(g2534
F0.223
g44
tp2814
a(g2558
F-0.02
g11
tp2815
a(g2484
F-0.012
g11
tp2816
a(g2606
F-0.029000000000000001
g11
tp2817
a(g2544
F0.049000000000000002
g11
tp2818
a(g2494
F-0.066000000000000003
g11
tp2819
a(g2600
F0.051999999999999998
g11
tp2820
a(g2509
F0.045999999999999999
g11
tp2821
a(g2574
F-0.060999999999999999
g11
tp2822
a(g2567
F0.0089999999999999993
g11
tp2823
asS'Clockwerk'
p2824
(lp2825
(g2492
F0.10199999999999999
g11
tp2826
a(g2486
F0.033000000000000002
g11
tp2827
a(g2519
F0.079000000000000001
g11
tp2828
a(g2558
F-0.024
g11
tp2829
asS'Kunkka'
p2830
(lp2831
(g2507
F-0.016
g11
tp2832
asg2754
(lp2833
(g2496
F-0.029999999999999999
g11
tp2834
a(g2565
F0.085999999999999993
g11
tp2835
asS'Slark'
p2836
(lp2837
(g2714
F-0.074999999999999997
g11
tp2838
asg2556
(lp2839
(g2486
F-0.0040000000000000001
g11
tp2840
a(g2492
F0.064000000000000001
g11
tp2841
a(g2519
F-0.058999999999999997
g11
tp2842
a(g2484
F-0.070999999999999994
g11
tp2843
a(g2554
F0.033000000000000002
g11
tp2844
a(g2517
F-0.021999999999999999
g11
tp2845
a(g2625
F0.12
g44
tp2846
a(g2754
F-0.002
g11
tp2847
a(g2509
F-0.0030000000000000001
g11
tp2848
a(g2490
F-0.02
g11
tp2849
a(g2544
F-0.014
g11
tp2850
a(S"Nature's Prophet"
F0.048000000000000001
g11
tp2851
a(S'Tinker'
p2852
F-0.036999999999999998
g11
tp2853
asg2492
(lp2854
(g2507
F0.0050000000000000001
g11
tp2855
a(g2499
F0.0030000000000000001
g11
tp2856
a(g2640
F0.036999999999999998
g11
tp2857
a(g2519
F-0.079000000000000001
g11
tp2858
a(g2511
F0.037999999999999999
g11
tp2859
a(g2488
F0.058999999999999997
g11
tp2860
a(g2494
F-0.019
g11
tp2861
a(g2501
F0.053999999999999999
g11
tp2862
a(g2505
F-0.019
g11
tp2863
a(g2496
F0.0050000000000000001
g11
tp2864
a(g2503
F0.092999999999999999
g44
tp2865
a(g2565
F0.078
g11
tp2866
a(g2490
F-0.017999999999999999
g11
tp2867
a(g2515
F0.10000000000000001
g44
tp2868
a(g2761
F0.034000000000000002
g11
tp2869
a(g2527
F-0.058000000000000003
g11
tp2870
a(S"Nature's Prophet"
F0.040000000000000001
g11
tp2871
a(g2611
F-0.012
g11
tp2872
a(S'Razor'
p2873
F0.082000000000000003
g11
tp2874
a(g2486
F-0.024
g11
tp2875
a(g2517
F-0.017000000000000001
g11
tp2876
a(g2529
F-0.002
g11
tp2877
a(g2509
F-0.040000000000000001
g11
tp2878
a(S'Puck'
p2879
F-0.082000000000000003
g11
tp2880
a(g2824
F0.041000000000000002
g11
tp2881
a(g2625
F0.14999999999999999
g44
tp2882
a(S'Lycan'
p2883
F0.080000000000000002
g11
tp2884
a(g2581
F0.029999999999999999
g11
tp2885
a(S'Lich'
p2886
F-0.10299999999999999
g11
tp2887
a(g2513
F0.11899999999999999
g44
tp2888
a(S'Vengeful Spirit'
p2889
F0.017999999999999999
g11
tp2890
a(g2650
F-0.080000000000000002
g11
tp2891
a(S'Templar Assassin'
p2892
F0.058000000000000003
g11
tp2893
a(g2539
F-0.062
g11
tp2894
a(g2532
F0.094
g11
tp2895
a(g2548
F-0.0040000000000000001
g11
tp2896
asg2576
(lp2897
(g2517
F-0.035000000000000003
g11
tp2898
a(g2519
F0.051999999999999998
g11
tp2899
a(g2494
F-0.039
g11
tp2900
asg2486
(lp2901
(g2556
F-0.0030000000000000001
g11
tp2902
a(S'Centaur Warrunner'
p2903
F0.048000000000000001
g11
tp2904
a(g2735
F0.107
g44
tp2905
a(g2600
F0.035999999999999997
g11
tp2906
a(g2484
F-0.032000000000000001
g11
tp2907
a(S"Nature's Prophet"
F0.002
g11
tp2908
a(g2558
F-0.019
g11
tp2909
a(g2534
F-0.025999999999999999
g11
tp2910
a(g2537
F-0.108
g44
tp2911
a(g2492
F0.035999999999999997
g11
tp2912
a(g2509
F-0.041000000000000002
g11
tp2913
a(g2571
F-0.112
g44
tp2914
a(g2611
F-0.080000000000000002
g11
tp2915
a(g2544
F0.053999999999999999
g11
tp2916
a(g2621
F0.074999999999999997
g11
tp2917
a(g2587
F-0.021999999999999999
g11
tp2918
a(g2723
F0.12
g44
tp2919
a(g2579
F0.032000000000000001
g11
tp2920
a(g2613
F0.014999999999999999
g11
tp2921
a(g2852
F-0.049000000000000002
g11
tp2922
a(g2606
F-0.17299999999999999
g44
tp2923
a(g2729
F-0.0040000000000000001
g11
tp2924
asg2509
(lp2925
(g2488
F0.036999999999999998
g11
tp2926
a(g2486
F-0.042000000000000003
g11
tp2927
a(g2642
F0.019
g11
tp2928
a(g2503
F0.081000000000000003
g11
tp2929
a(g2761
F-0.016
g11
tp2930
a(g2625
F0.13700000000000001
g44
tp2931
a(g2873
F-0.111
g11
tp2932
a(g2494
F-0.055
g11
tp2933
a(g2496
F-0.0030000000000000001
g11
tp2934
a(S"Nature's Prophet"
F-0.012
g11
tp2935
a(g2515
F-0.070999999999999994
g11
tp2936
a(g2511
F0.064000000000000001
g11
tp2937
asg2657
(lp2938
(g2655
F0.056000000000000001
g11
tp2939
asg2611
(lp2940
(g2492
F0.072999999999999995
g11
tp2941
a(S'Skywrath Mage'
p2942
F-0.055
g11
tp2943
a(g2554
F0.045999999999999999
g11
tp2944
a(g2534
F0.082000000000000003
g11
tp2945
a(S"Nature's Prophet"
F-0.064000000000000001
g11
tp2946
a(g2903
F-0.080000000000000002
g11
tp2947
a(g2720
F0.042999999999999997
g11
tp2948
asg2587
(lp2949
(g2565
F0.106
g11
tp2950
a(g2492
F-0.029000000000000001
g11
tp2951
a(g2517
F-0.080000000000000002
g11
tp2952
a(g2486
F-0.029000000000000001
g11
tp2953
a(g2883
F0.058999999999999997
g11
tp2954
a(g2503
F0.037999999999999999
g11
tp2955
a(g2505
F-0.111
g11
tp2956
a(g2490
F0.037999999999999999
g11
tp2957
a(g2499
F0.153
g44
tp2958
a(g2494
F0.01
g11
tp2959
asg2581
(lp2960
(g2492
F0.085000000000000006
g11
tp2961
a(g2723
F-0.029999999999999999
g11
tp2962
asg2499
(lp2963
(g2492
F0.024
g11
tp2964
a(g2486
F-0.058000000000000003
g11
tp2965
a(g2517
F0.025000000000000001
g11
tp2966
a(g2490
F0.035999999999999997
g11
tp2967
a(g2519
F-0.057000000000000002
g11
tp2968
a(g2484
F0.13500000000000001
g44
tp2969
a(g2515
F0.029999999999999999
g11
tp2970
a(S"Nature's Prophet"
F0.010999999999999999
g11
tp2971
a(g2527
F0.0050000000000000001
g11
tp2972
a(g2761
F0
g11
tp2973
a(g2511
F-0.040000000000000001
g11
tp2974
a(g2554
F-0.057000000000000002
g11
tp2975
a(g2503
F0.153
g44
tp2976
a(g2571
F-0.001
g11
tp2977
a(g2587
F0.121
g11
tp2978
a(g2494
F-0.021999999999999999
g11
tp2979
a(g2625
F0.031
g11
tp2980
a(g2507
F-0.032000000000000001
g11
tp2981
a(g2824
F-0.064000000000000001
g11
tp2982
asg2892
(lp2983
(g2492
F0.039
g11
tp2984
a(g2490
F0.010999999999999999
g11
tp2985
asg2680
(lp2986
(g2488
F0.064000000000000001
g11
tp2987
a(g2505
F0.023
g11
tp2988
a(g2494
F-0.025000000000000001
g11
tp2989
a(g2490
F-0.034000000000000002
g11
tp2990
a(g2886
F0.099000000000000005
g11
tp2991
a(g2501
F0.037999999999999999
g11
tp2992
a(g2517
F0.042000000000000003
g11
tp2993
asg2507
(lp2994
(g2492
F0.091999999999999998
g44
tp2995
a(g2494
F-0.083000000000000004
g11
tp2996
a(g2723
F-0.027
g11
tp2997
a(g2534
F0.028000000000000001
g11
tp2998
a(g2735
F0.040000000000000001
g11
tp2999
a(g2571
F0.072999999999999995
g11
tp3000
a(g2521
F0.0070000000000000001
g11
tp3001
a(g2537
F0.11600000000000001
g44
tp3002
a(g2544
F-0.050999999999999997
g11
tp3003
a(g2484
F0.081000000000000003
g11
tp3004
a(g2678
F-0.021999999999999999
g11
tp3005
a(g2600
F-0.036999999999999998
g11
tp3006
a(S"Nature's Prophet"
F0.034000000000000002
g11
tp3007
a(g2637
F-0.035000000000000003
g11
tp3008
a(g2836
F-0.076999999999999999
g11
tp3009
a(S'Luna'
p3010
F-0.012999999999999999
g11
tp3011
a(g2830
F0.014
g11
tp3012
a(g2565
F-0.025999999999999999
g11
tp3013
a(g2558
F0.034000000000000002
g11
tp3014
asg3010
(lp3015
(g2507
F-0.070000000000000007
g11
tp3016
asg2501
(lp3017
(g2492
F0.105
g44
tp3018
a(g2554
F0.050000000000000003
g11
tp3019
a(g2486
F-0.121
g44
tp3020
a(g2507
F0.036999999999999998
g11
tp3021
a(g2625
F0.041000000000000002
g11
tp3022
a(g2484
F-0.016
g11
tp3023
a(g2761
F-0.064000000000000001
g11
tp3024
a(g2490
F-0.025999999999999999
g11
tp3025
a(g2519
F-0.050000000000000003
g11
tp3026
a(g2517
F0.024
g11
tp3027
a(g2565
F0.098000000000000004
g11
tp3028
a(g2544
F-0.049000000000000002
g11
tp3029
a(g2615
F0.056000000000000001
g11
tp3030
a(g2513
F0.058000000000000003
g11
tp3031
a(g2499
F0.029000000000000001
g11
tp3032
a(g2680
F0.089999999999999997
g11
tp3033
a(g2618
F-0.034000000000000002
g11
tp3034
asg2886
(lp3035
(g2492
F-0.043999999999999997
g11
tp3036
a(g2494
F0.050000000000000003
g11
tp3037
a(g2511
F-0.042999999999999997
g11
tp3038
a(g2519
F0.016
g11
tp3039
a(g2680
F0.159
g44
tp3040
asg2548
(lp3041
(g2546
F0.014999999999999999
g11
tp3042
a(g2494
F-0.025000000000000001
g11
tp3043
a(g2492
F0.056000000000000001
g11
tp3044
a(g2678
F-0.085000000000000006
g11
tp3045
a(g2486
F-0.0040000000000000001
g11
tp3046
asg2554
(lp3047
(g2511
F-0.021999999999999999
g11
tp3048
a(g2492
F0.10199999999999999
g44
tp3049
a(g2503
F0.051999999999999998
g11
tp3050
a(g2494
F-0.085000000000000006
g11
tp3051
a(S"Nature's Prophet"
F0.042000000000000003
g11
tp3052
a(g2761
F-0.029999999999999999
g11
tp3053
a(g2509
F0.021000000000000001
g11
tp3054
a(g2501
F0.042000000000000003
g11
tp3055
a(g2519
F-0.068000000000000005
g11
tp3056
a(g2484
F0.068000000000000005
g11
tp3057
a(g2515
F0.002
g11
tp3058
a(g2496
F0.017000000000000001
g11
tp3059
a(g2625
F0.112
g44
tp3060
a(g2611
F0.0040000000000000001
g11
tp3061
a(g2615
F-0.0030000000000000001
g11
tp3062
a(g2499
F-0.035000000000000003
g11
tp3063
a(g2680
F0.108
g11
tp3064
a(g2883
F0.027
g11
tp3065
asg2490
(lp3066
(g2563
F0.021999999999999999
g11
tp3067
a(g2534
F0.058999999999999997
g11
tp3068
a(g2591
F0.042999999999999997
g11
tp3069
a(g2537
F-0.002
g11
tp3070
a(g2723
F-0.067000000000000004
g11
tp3071
a(g2492
F0.029000000000000001
g11
tp3072
a(g2494
F0.065000000000000002
g11
tp3073
a(g2735
F-0.021000000000000001
g11
tp3074
a(g2600
F-0.049000000000000002
g11
tp3075
a(g2484
F0.028000000000000001
g11
tp3076
a(g2678
F-0.042999999999999997
g11
tp3077
a(g2558
F0.062
g11
tp3078
a(g2725
F0.099000000000000005
g11
tp3079
a(g2584
F0.13700000000000001
g44
tp3080
a(g2571
F-0.029999999999999999
g11
tp3081
a(g2556
F-0.032000000000000001
g11
tp3082
a(g2544
F-0.042999999999999997
g11
tp3083
a(g2567
F-0.0060000000000000001
g11
tp3084
a(g2587
F0.032000000000000001
g11
tp3085
a(g2680
F0.014
g11
tp3086
a(g2621
F0.073999999999999996
g11
tp3087
a(S'Templar Assassin'
p3088
F0.076999999999999999
g11
tp3089
a(g2611
F0.0050000000000000001
g11
tp3090
asg2615
(lp3091
(g2554
F0.0080000000000000002
g11
tp3092
a(g2519
F-0.039
g11
tp3093
a(g2490
F0.001
g11
tp3094
a(g2571
F0.058999999999999997
g11
tp3095
a(g2511
F0.021999999999999999
g11
tp3096
a(S"Nature's Prophet"
F0.001
g11
tp3097
asg2600
(lp3098
(g2486
F0.044999999999999998
g11
tp3099
a(g2494
F-0.0089999999999999993
g11
tp3100
a(g2554
F-0.0040000000000000001
g11
tp3101
a(g2490
F-0.027
g11
tp3102
a(g2492
F0.10299999999999999
g44
tp3103
a(S"Nature's Prophet"
F0.071999999999999995
g11
tp3104
a(g2544
F-0.028000000000000001
g11
tp3105
a(g2503
F-0.040000000000000001
g11
tp3106
a(g2565
F0.098000000000000004
g11
tp3107
a(g2509
F-0.0060000000000000001
g11
tp3108
a(g2571
F-0.045999999999999999
g11
tp3109
a(g2507
F-0.055
g11
tp3110
a(g2558
F0.048000000000000001
g11
tp3111
a(g2515
F0.025000000000000001
g11
tp3112
a(g2511
F0.080000000000000002
g11
tp3113
a(g2517
F0.044999999999999998
g11
tp3114
assI682
g2
(g3
tRp3115
S'Ogre Magi'
p3116
(lp3117
(S'Skywrath Mage'
p3118
F-0.11899999999999999
g44
tp3119
a(S'Jakiro'
p3120
F0.0060000000000000001
g11
tp3121
a(S'Tidehunter'
p3122
F-0.0060000000000000001
g11
tp3123
a(S'Puck'
p3124
F0.012999999999999999
g11
tp3125
a(S'Razor'
p3126
F-0.027
g11
tp3127
a(S'Batrider'
p3128
F0.0030000000000000001
g11
tp3129
a(S'Centaur Warrunner'
p3130
F-0.075999999999999998
g11
tp3131
a(S'Faceless Void'
p3132
F-0.024
g11
tp3133
a(S'Slark'
p3134
F0.074999999999999997
g11
tp3135
a(S'Ancient Apparition'
p3136
F0.098000000000000004
g11
tp3137
a(S'Vengeful Spirit'
p3138
F0.151
g44
tp3139
a(S'Ember Spirit'
p3140
F-0.057000000000000002
g11
tp3141
a(S'Death Prophet'
p3142
F-0.105
g11
tp3143
a(S'Viper'
p3144
F0.027
g11
tp3145
a(S'Witch Doctor'
p3146
F-0.041000000000000002
g11
tp3147
a(S'Mirana'
p3148
F0.012999999999999999
g11
tp3149
a(S'Medusa'
p3150
F0.189
g44
tp3151
a(S'Brewmaster'
p3152
F0.20000000000000001
g44
tp3153
a(S'Lycan'
p3154
F0.058000000000000003
g11
tp3155
a(S'Invoker'
p3156
F0.088999999999999996
g11
tp3157
a(S'Naga Siren'
p3158
F0.106
g11
tp3159
a(S'Necrophos'
p3160
F0.041000000000000002
g11
tp3161
a(S'Weaver'
p3162
F-0.14699999999999999
g44
tp3163
a(S'Legion Commander'
p3164
F0.012999999999999999
g11
tp3165
a(S'Storm Spirit'
p3166
F-0.114
g11
tp3167
a(S'Zeus'
p3168
F0.219
g44
tp3169
a(S'Doom'
p3170
F-0.067000000000000004
g11
tp3171
a(S'Anti-Mage'
F-0.047
g11
tp3172
a(S'Magnus'
p3173
F0.034000000000000002
g11
tp3174
a(S'Morphling'
p3175
F-0.055
g11
tp3176
a(S'Io'
p3177
F0.058000000000000003
g11
tp3178
a(S'Phantom Assassin'
p3179
F0.025000000000000001
g11
tp3180
a(S"Nature's Prophet"
F0.048000000000000001
g11
tp3181
a(S'Clockwerk'
p3182
F-0.106
g11
tp3183
a(S'Timbersaw'
p3184
F-0.048000000000000001
g11
tp3185
a(S'Templar Assassin'
p3186
F0.087999999999999995
g11
tp3187
a(S'Visage'
p3188
F0.039
g11
tp3189
a(S'Elder Titan'
p3190
F0.012999999999999999
g11
tp3191
a(S'Rubick'
p3192
F0.113
g11
tp3193
asg3126
(lp3194
(S'Ogre Magi'
p3195
F0.014
g11
tp3196
a(g3118
F-0.11600000000000001
g44
tp3197
a(S'Vengeful Spirit'
p3198
F0.001
g11
tp3199
a(S'Tidehunter'
p3200
F0.088999999999999996
g11
tp3201
a(S'Jakiro'
p3202
F0.053999999999999999
g11
tp3203
a(g3130
F-0.035999999999999997
g11
tp3204
a(S'Earthshaker'
p3205
F-0.01
g11
tp3206
a(S'Faceless Void'
p3207
F0.025999999999999999
g11
tp3208
a(S'Witch Doctor'
p3209
F-0.063
g11
tp3210
a(S'Batrider'
p3211
F-0.055
g11
tp3212
a(g3148
F0.13200000000000001
g11
tp3213
a(S'Ancient Apparition'
p3214
F0.076999999999999999
g11
tp3215
a(g3192
F-0.097000000000000003
g11
tp3216
a(g3190
F0.028000000000000001
g11
tp3217
asS'Timbersaw'
p3218
(lp3219
(g3118
F-0.029999999999999999
g11
tp3220
a(g3116
F-0.090999999999999998
g11
tp3221
asg3158
(lp3222
(g3120
F-0.085000000000000006
g11
tp3223
a(g3116
F0.033000000000000002
g11
tp3224
a(g3118
F-0.017000000000000001
g11
tp3225
a(g3152
F0.035000000000000003
g11
tp3226
a(g3138
F0.123
g11
tp3227
a(g3122
F0.089999999999999997
g11
tp3228
a(g3128
F-0.0070000000000000001
g11
tp3229
asS'Magnus'
p3230
(lp3231
(g3118
F-0.128
g11
tp3232
a(g3116
F0.017999999999999999
g11
tp3233
asg3146
(lp3234
(g3195
F-0.039
g11
tp3235
a(g3207
F-0.039
g11
tp3236
a(g3122
F0.035999999999999997
g11
tp3237
a(S'Brewmaster'
p3238
F0.084000000000000005
g11
tp3239
a(g3202
F0.014999999999999999
g11
tp3240
a(S'Viper'
p3241
F0.090999999999999998
g11
tp3242
a(g3211
F-0.012999999999999999
g11
tp3243
a(S'Death Prophet'
p3244
F0.0060000000000000001
g11
tp3245
a(g3126
F-0.10199999999999999
g11
tp3246
a(S'Lycan'
p3247
F0.025999999999999999
g11
tp3248
a(g3130
F-0.029999999999999999
g11
tp3249
a(g3124
F0.014999999999999999
g11
tp3250
a(g3138
F-0.041000000000000002
g11
tp3251
a(g3140
F0.085999999999999993
g11
tp3252
asg3156
(lp3253
(g3118
F-0.021999999999999999
g11
tp3254
a(g3195
F0.059999999999999998
g11
tp3255
a(g3138
F0.080000000000000002
g11
tp3256
a(g3132
F-0.073999999999999996
g11
tp3257
a(g3130
F-0.094
g11
tp3258
a(g3120
F-0.0030000000000000001
g11
tp3259
asg3166
(lp3260
(g3195
F-0.097000000000000003
g11
tp3261
a(g3118
F0.052999999999999999
g11
tp3262
a(g3198
F0.056000000000000001
g11
tp3263
asg3154
(lp3264
(g3195
F0.028000000000000001
g11
tp3265
a(g3138
F0.108
g11
tp3266
a(g3120
F0.028000000000000001
g11
tp3267
a(g3122
F0.010999999999999999
g11
tp3268
a(g3146
F-0.0060000000000000001
g11
tp3269
a(g3188
F-0.042999999999999997
g11
tp3270
asS"Nature's Prophet"
p3271
(lp3272
(g3238
F0.082000000000000003
g11
tp3273
a(g3118
F-0.029000000000000001
g11
tp3274
a(g3138
F0.13800000000000001
g44
tp3275
a(g3195
F0.059999999999999998
g11
tp3276
a(g3202
F0.050999999999999997
g11
tp3277
a(g3205
F-0.13200000000000001
g11
tp3278
asS'Venomancer'
p3279
(lp3280
(g3138
F0.19500000000000001
g44
tp3281
asS'Shadow Demon'
p3282
(lp3283
(g3148
F0.094
g11
tp3284
a(g3152
F-0.039
g11
tp3285
asg3168
(lp3286
(g3195
F0.13800000000000001
g11
tp3287
a(g3118
F-0.044999999999999998
g11
tp3288
a(g3138
F0.068000000000000005
g11
tp3289
a(g3190
F-0.042000000000000003
g11
tp3290
a(g3200
F0.0030000000000000001
g11
tp3291
asg3120
(lp3292
(g3195
F-0.017000000000000001
g11
tp3293
a(g3138
F0.10100000000000001
g44
tp3294
a(g3118
F-0.13800000000000001
g44
tp3295
a(g3238
F0.058000000000000003
g11
tp3296
a(g3142
F0.076999999999999999
g11
tp3297
a(g3132
F-0.079000000000000001
g11
tp3298
a(g3146
F-0.01
g11
tp3299
a(g3126
F-0.01
g11
tp3300
a(g3122
F-0.017999999999999999
g11
tp3301
a(g3158
F-0.035000000000000003
g11
tp3302
a(g3140
F-0.027
g11
tp3303
a(g3247
F0.035000000000000003
g11
tp3304
a(g3205
F-0.092999999999999999
g11
tp3305
a(g3124
F-0.114
g11
tp3306
a(g3134
F0.064000000000000001
g11
tp3307
a(g3130
F0.012
g11
tp3308
a(g3144
F-0.021000000000000001
g11
tp3309
a(S'Invoker'
p3310
F0.0030000000000000001
g11
tp3311
a(S"Nature's Prophet"
F0.016
g11
tp3312
a(g3211
F0.0040000000000000001
g11
tp3313
asS'Enigma'
p3314
(lp3315
(g3238
F0.043999999999999997
g11
tp3316
a(g3138
F0.099000000000000005
g11
tp3317
asS'Drow Ranger'
p3318
(lp3319
(g3188
F-0.023
g11
tp3320
a(g3198
F-0.040000000000000001
g11
tp3321
a(S'Puck'
p3322
F0.032000000000000001
g11
tp3323
asg3136
(lp3324
(g3195
F0.070000000000000007
g11
tp3325
a(g3238
F-0.063
g11
tp3326
a(g3138
F0.0060000000000000001
g11
tp3327
a(g3130
F-0.082000000000000003
g11
tp3328
a(g3132
F0.106
g11
tp3329
a(g3128
F0.053999999999999999
g11
tp3330
a(g3122
F-0.014999999999999999
g11
tp3331
a(g3124
F0.050999999999999997
g11
tp3332
a(g3140
F0.123
g11
tp3333
a(g3192
F-0.047
g11
tp3334
a(g3126
F0.0080000000000000002
g11
tp3335
a(g3205
F-0.079000000000000001
g11
tp3336
a(g3142
F0.037999999999999999
g11
tp3337
a(g3134
F0.056000000000000001
g11
tp3338
asg3160
(lp3339
(g3195
F-0.050999999999999997
g11
tp3340
asg3170
(lp3341
(g3118
F-0.11799999999999999
g11
tp3342
a(g3195
F-0.050999999999999997
g11
tp3343
a(g3238
F0.080000000000000002
g11
tp3344
a(g3138
F0.041000000000000002
g11
tp3345
a(g3124
F-0.070999999999999994
g11
tp3346
asg3198
(lp3347
(g3124
F0.0050000000000000001
g11
tp3348
a(g3238
F0.033000000000000002
g11
tp3349
a(g3200
F0.055
g11
tp3350
a(g3202
F0.039
g11
tp3351
a(g3130
F-0.091999999999999998
g11
tp3352
a(g3211
F0.049000000000000002
g11
tp3353
a(g3118
F-0.113
g44
tp3354
a(g3195
F0.066000000000000003
g11
tp3355
a(g3190
F0.14099999999999999
g44
tp3356
a(g3244
F-0.014999999999999999
g11
tp3357
a(g3241
F0.060999999999999999
g11
tp3358
a(g3126
F-0.125
g44
tp3359
a(g3214
F-0.050999999999999997
g11
tp3360
a(g3207
F-0.0089999999999999993
g11
tp3361
a(S"Nature's Prophet"
F0.041000000000000002
g11
tp3362
a(g3188
F-0.053999999999999999
g11
tp3363
a(g3247
F0.052999999999999999
g11
tp3364
a(g3140
F-0.043999999999999997
g11
tp3365
a(S'Phantom Assassin'
p3366
F0.050999999999999997
g11
tp3367
a(g3318
F-0.043999999999999997
g11
tp3368
a(g3134
F-0.014
g11
tp3369
a(g3310
F0.024
g11
tp3370
a(g3150
F0.024
g11
tp3371
a(S'Terrorblade'
p3372
F0.024
g11
tp3373
a(S'Zeus'
p3374
F0.064000000000000001
g11
tp3375
a(S'Anti-Mage'
F-0.027
g11
tp3376
a(g3205
F-0.13
g11
tp3377
a(S'Doom'
p3378
F-0.059999999999999998
g11
tp3379
a(g3158
F0.111
g11
tp3380
a(g3175
F0.0030000000000000001
g11
tp3381
a(g3166
F-0.045999999999999999
g11
tp3382
a(g3164
F-0.0040000000000000001
g11
tp3383
a(g3209
F-0.128
g11
tp3384
a(S'Enigma'
p3385
F0.122
g11
tp3386
a(g3279
F0.20599999999999999
g44
tp3387
asS'Centaur Warrunner'
p3388
(lp3389
(g3118
F-0.039
g11
tp3390
a(g3138
F0.024
g11
tp3391
a(g3116
F-0.044999999999999998
g11
tp3392
a(g3136
F-0.023
g11
tp3393
a(g3126
F-0.045999999999999999
g11
tp3394
a(S'Lich'
p3395
F0.043999999999999997
g11
tp3396
a(g3205
F-0.051999999999999998
g11
tp3397
a(g3140
F-0.014
g11
tp3398
a(g3144
F0.043999999999999997
g11
tp3399
a(g3142
F-0.0089999999999999993
g11
tp3400
a(g3120
F0.066000000000000003
g11
tp3401
a(g3156
F-0.034000000000000002
g11
tp3402
a(S'Rubick'
p3403
F-0.047
g11
tp3404
a(g3146
F-0.001
g11
tp3405
a(g3148
F0.068000000000000005
g11
tp3406
a(S'Sand King'
p3407
F0.0070000000000000001
g11
tp3408
a(S'Slark'
p3409
F-0.066000000000000003
g11
tp3410
a(g3152
F0.17799999999999999
g44
tp3411
a(g3124
F-0.156
g44
tp3412
a(g3175
F0.058000000000000003
g11
tp3413
a(g3372
F-0.113
g11
tp3414
asg3395
(lp3415
(g3130
F0.065000000000000002
g11
tp3416
a(g3175
F0.13900000000000001
g11
tp3417
a(g3118
F0.076999999999999999
g11
tp3418
a(g3238
F0.13300000000000001
g11
tp3419
asg3407
(lp3420
(g3118
F-0.094
g11
tp3421
a(g3200
F0.032000000000000001
g11
tp3422
a(g3238
F0.029999999999999999
g11
tp3423
a(g3130
F0.0050000000000000001
g11
tp3424
a(g3244
F0.098000000000000004
g11
tp3425
a(g3241
F-0.001
g11
tp3426
asg3179
(lp3427
(g3118
F-0.042000000000000003
g11
tp3428
a(g3138
F0.10000000000000001
g11
tp3429
a(g3195
F-0.010999999999999999
g11
tp3430
a(g3190
F0.109
g11
tp3431
asg3372
(lp3432
(g3138
F0.121
g11
tp3433
a(g3124
F0.002
g11
tp3434
a(S'Skywrath Mage'
p3435
F-0.01
g11
tp3436
a(g3388
F-0.13200000000000001
g11
tp3437
asg3128
(lp3438
(g3195
F0.01
g11
tp3439
a(g3138
F0.14099999999999999
g44
tp3440
a(g3118
F0.025999999999999999
g11
tp3441
a(g3214
F0.088999999999999996
g11
tp3442
a(g3146
F-0.0080000000000000002
g11
tp3443
a(g3238
F-0.012
g11
tp3444
a(g3126
F-0.088999999999999996
g11
tp3445
a(g3205
F0.0070000000000000001
g11
tp3446
a(g3158
F0.072999999999999995
g11
tp3447
a(g3192
F0.034000000000000002
g11
tp3448
a(g3142
F0.063
g11
tp3449
a(g3120
F0.034000000000000002
g11
tp3450
a(g3144
F-0.109
g11
tp3451
asg3238
(lp3452
(g3138
F0.048000000000000001
g11
tp3453
a(g3118
F-0.036999999999999998
g11
tp3454
a(g3120
F0.010999999999999999
g11
tp3455
a(g3136
F-0.105
g11
tp3456
a(g3271
F0
g11
tp3457
a(g3195
F0.13
g44
tp3458
a(g3146
F0.012
g11
tp3459
a(g3192
F-0.111
g11
tp3460
a(g3190
F0.10299999999999999
g11
tp3461
a(g3170
F-0.0060000000000000001
g11
tp3462
a(g3128
F-0.088999999999999996
g11
tp3463
a(g3205
F-0.068000000000000005
g11
tp3464
a(g3158
F0.037999999999999999
g11
tp3465
a(g3407
F-0.069000000000000006
g11
tp3466
a(g3148
F0.10199999999999999
g11
tp3467
a(g3130
F0.076999999999999999
g11
tp3468
a(g3122
F0.092999999999999999
g11
tp3469
a(g3124
F-0.0070000000000000001
g11
tp3470
a(S'Anti-Mage'
F0.0070000000000000001
g11
tp3471
a(g3282
F-0.13600000000000001
g11
tp3472
a(g3134
F-0.070999999999999994
g11
tp3473
a(g3175
F0.065000000000000002
g11
tp3474
a(g3395
F0.010999999999999999
g11
tp3475
a(g3314
F0.082000000000000003
g11
tp3476
a(g3177
F0.025999999999999999
g11
tp3477
asS'Spectre'
p3478
(lp3479
(g3118
F-0.099000000000000005
g11
tp3480
a(g3122
F0.082000000000000003
g11
tp3481
asg3182
(lp3482
(g3118
F-0.051999999999999998
g11
tp3483
a(g3195
F-0.126
g11
tp3484
asS'Tiny'
p3485
(lp3486
(g3177
F0.036999999999999998
g11
tp3487
asg3409
(lp3488
(g3118
F-0.085999999999999993
g11
tp3489
a(g3116
F0.025999999999999999
g11
tp3490
a(g3138
F0.021999999999999999
g11
tp3491
a(g3122
F-0.075999999999999998
g11
tp3492
a(g3120
F0.037999999999999999
g11
tp3493
a(g3130
F-0.14599999999999999
g11
tp3494
a(g3124
F-0.010999999999999999
g11
tp3495
a(g3190
F-0.023
g11
tp3496
a(g3142
F0.079000000000000001
g11
tp3497
a(g3152
F-0.050000000000000003
g11
tp3498
a(g3205
F0.058999999999999997
g11
tp3499
a(g3136
F0.035000000000000003
g11
tp3500
asg3132
(lp3501
(g3118
F-0.053999999999999999
g11
tp3502
a(g3195
F-0.024
g11
tp3503
a(g3146
F-0.041000000000000002
g11
tp3504
a(g3138
F0.075999999999999998
g11
tp3505
a(g3214
F0.13400000000000001
g44
tp3506
a(g3202
F-0.056000000000000001
g11
tp3507
a(g3126
F-0.014999999999999999
g11
tp3508
a(g3244
F0.128
g11
tp3509
a(g3310
F-0.044999999999999998
g11
tp3510
a(g3148
F0.064000000000000001
g11
tp3511
a(g3124
F0.086999999999999994
g11
tp3512
a(g3190
F0.122
g11
tp3513
a(g3241
F0.012999999999999999
g11
tp3514
a(g3140
F0.001
g11
tp3515
a(g3205
F-0.014999999999999999
g11
tp3516
asg3148
(lp3517
(g3195
F-0.068000000000000005
g11
tp3518
a(g3200
F-0.075999999999999998
g11
tp3519
a(g3282
F-0.014
g11
tp3520
a(g3140
F-0.002
g11
tp3521
a(g3207
F-0.017000000000000001
g11
tp3522
a(S'Razor'
p3523
F0.01
g11
tp3524
a(g3130
F-0.043999999999999997
g11
tp3525
a(g3238
F0.090999999999999998
g11
tp3526
a(g3241
F0.115
g11
tp3527
a(g3118
F-0.11799999999999999
g11
tp3528
a(g3244
F0.057000000000000002
g11
tp3529
asg3162
(lp3530
(g3118
F-0.016
g11
tp3531
a(g3195
F-0.086999999999999994
g11
tp3532
asg3118
(lp3533
(g3388
F-0.021999999999999999
g11
tp3534
a(g3122
F0.055
g11
tp3535
a(g3116
F-0.070999999999999994
g44
tp3536
a(g3132
F-0.0060000000000000001
g11
tp3537
a(g3140
F-0.001
g11
tp3538
a(g3409
F0.010999999999999999
g11
tp3539
a(g3124
F0.002
g11
tp3540
a(g3407
F-0.074999999999999997
g11
tp3541
a(g3205
F0.070000000000000007
g11
tp3542
a(g3152
F0.081000000000000003
g11
tp3543
a(g3126
F-0.109
g44
tp3544
a(g3142
F0.083000000000000004
g11
tp3545
a(g3144
F-0.058999999999999997
g11
tp3546
a(g3190
F0.021000000000000001
g11
tp3547
a(g3120
F-0.067000000000000004
g11
tp3548
a(g3128
F0.067000000000000004
g11
tp3549
a(g3138
F0.02
g11
tp3550
a(g3156
F0.055
g11
tp3551
a(g3164
F-0.02
g11
tp3552
a(S"Nature's Prophet"
F0.0070000000000000001
g11
tp3553
a(g3230
F-0.064000000000000001
g11
tp3554
a(g3175
F0.060999999999999999
g11
tp3555
a(g3162
F-0.028000000000000001
g11
tp3556
a(S'Wraith King'
p3557
F-0.01
g11
tp3558
a(g3179
F0.042000000000000003
g11
tp3559
a(S'Anti-Mage'
p3560
F0.0050000000000000001
g11
tp3561
a(g3218
F0.060999999999999999
g11
tp3562
a(g3170
F-0.085999999999999993
g11
tp3563
a(S'Io'
p3564
F-0.085999999999999993
g11
tp3565
a(g3478
F-0.091999999999999998
g11
tp3566
a(g3186
F-0.042999999999999997
g11
tp3567
a(S'Naga Siren'
p3568
F0.104
g11
tp3569
a(g3168
F0.084000000000000005
g11
tp3570
a(S'Medusa'
p3571
F0.129
g11
tp3572
a(g3403
F-0.0070000000000000001
g11
tp3573
a(g3182
F0.016
g11
tp3574
a(g3166
F0.084000000000000005
g11
tp3575
a(g3395
F0.072999999999999995
g11
tp3576
a(g3372
F0.025999999999999999
g11
tp3577
a(g3148
F0.010999999999999999
g11
tp3578
asg3190
(lp3579
(g3435
F-0.085999999999999993
g11
tp3580
a(g3138
F0.16700000000000001
g44
tp3581
a(g3124
F-0.0089999999999999993
g11
tp3582
a(g3152
F0.114
g11
tp3583
a(g3122
F0.0030000000000000001
g11
tp3584
a(g3140
F-0.056000000000000001
g11
tp3585
a(g3132
F0.063
g11
tp3586
a(g3409
F-0.033000000000000002
g11
tp3587
a(g3179
F0.085999999999999993
g11
tp3588
a(g3168
F-0.02
g11
tp3589
a(g3126
F-0.071999999999999995
g11
tp3590
a(g3116
F-0.045999999999999999
g11
tp3591
asg3205
(lp3592
(g3118
F0.067000000000000004
g11
tp3593
a(g3244
F0.0060000000000000001
g11
tp3594
a(g3130
F-0.037999999999999999
g11
tp3595
a(g3523
F-0.0060000000000000001
g11
tp3596
a(g3200
F0.096000000000000002
g11
tp3597
a(g3241
F-0.021999999999999999
g11
tp3598
a(g3202
F-0.025000000000000001
g11
tp3599
a(g3322
F0.047
g11
tp3600
a(g3238
F0.047
g11
tp3601
a(g3198
F0
g11
tp3602
a(g3211
F0.044999999999999998
g11
tp3603
a(g3214
F-0.0060000000000000001
g11
tp3604
a(g3134
F0.153
g11
tp3605
a(g3140
F-0.11799999999999999
g11
tp3606
a(g3207
F0.029999999999999999
g11
tp3607
a(S"Nature's Prophet"
F-0.099000000000000005
g11
tp3608
asg3188
(lp3609
(g3318
F0.055
g11
tp3610
a(g3138
F0.028000000000000001
g11
tp3611
a(g3122
F0.01
g11
tp3612
a(g3116
F0.035999999999999997
g11
tp3613
a(g3154
F-0.016
g11
tp3614
a(g3124
F-0.0040000000000000001
g11
tp3615
asg3140
(lp3616
(g3435
F-0.065000000000000002
g11
tp3617
a(g3116
F-0.072999999999999995
g11
tp3618
a(g3122
F-0.043999999999999997
g11
tp3619
a(g3120
F-0.02
g11
tp3620
a(g3138
F0.025000000000000001
g11
tp3621
a(g3148
F0.063
g11
tp3622
a(g3388
F-0.060999999999999999
g11
tp3623
a(S'Elder Titan'
p3624
F-0.012999999999999999
g11
tp3625
a(g3136
F0.13500000000000001
g11
tp3626
a(g3132
F-0.014999999999999999
g11
tp3627
a(g3205
F-0.17899999999999999
g44
tp3628
a(g3146
F0.068000000000000005
g11
tp3629
asg3124
(lp3630
(g3198
F0.062
g11
tp3631
a(g3118
F-0.073999999999999996
g11
tp3632
a(g3195
F-0.014999999999999999
g11
tp3633
a(g3190
F0.021999999999999999
g11
tp3634
a(g3214
F0.050999999999999997
g11
tp3635
a(g3177
F0.048000000000000001
g11
tp3636
a(g3202
F-0.11899999999999999
g11
tp3637
a(g3207
F0.058999999999999997
g11
tp3638
a(g3205
F-0.025999999999999999
g11
tp3639
a(g3372
F-0.037999999999999999
g11
tp3640
a(g3200
F0.042999999999999997
g11
tp3641
a(g3378
F-0.115
g11
tp3642
a(g3238
F0.035000000000000003
g11
tp3643
a(g3134
F0.01
g11
tp3644
a(g3209
F-0.014999999999999999
g11
tp3645
a(g3130
F-0.215
g44
tp3646
a(g3188
F-0.029000000000000001
g11
tp3647
a(g3318
F0.085000000000000006
g11
tp3648
asg3164
(lp3649
(g3435
F-0.064000000000000001
g11
tp3650
a(g3116
F0.017000000000000001
g11
tp3651
a(g3138
F0.085000000000000006
g11
tp3652
a(g3564
F0.087999999999999995
g11
tp3653
asg3557
(lp3654
(g3118
F-0.058000000000000003
g11
tp3655
a(g3122
F-0.070000000000000007
g11
tp3656
asg3186
(lp3657
(g3118
F-0.11799999999999999
g11
tp3658
a(g3195
F0.060999999999999999
g11
tp3659
asg3175
(lp3660
(g3118
F-0.012
g11
tp3661
a(S'Lich'
p3662
F0.062
g11
tp3663
a(g3195
F-0.080000000000000002
g11
tp3664
a(g3198
F0.063
g11
tp3665
a(g3238
F0.11
g11
tp3666
a(g3130
F0.002
g11
tp3667
asS'Disruptor'
p3668
(lp3669
(g3122
F0.113
g11
tp3670
asg3142
(lp3671
(g3118
F-0.001
g11
tp3672
a(g3138
F0.034000000000000002
g11
tp3673
a(g3195
F-0.14099999999999999
g44
tp3674
a(g3202
F0.064000000000000001
g11
tp3675
a(g3122
F0.124
g44
tp3676
a(g3205
F-0.074999999999999997
g11
tp3677
a(g3146
F-0.032000000000000001
g11
tp3678
a(g3132
F0.091999999999999998
g11
tp3679
a(g3130
F-0.075999999999999998
g11
tp3680
a(g3148
F0.10199999999999999
g11
tp3681
a(g3134
F0.091999999999999998
g11
tp3682
a(g3214
F0.029999999999999999
g11
tp3683
a(g3407
F0.033000000000000002
g11
tp3684
a(g3211
F0.02
g11
tp3685
asg3560
(lp3686
(g3118
F-0.034000000000000002
g11
tp3687
a(g3195
F-0.037999999999999999
g11
tp3688
a(g3198
F0.067000000000000004
g11
tp3689
a(g3238
F0.085999999999999993
g11
tp3690
asg3122
(lp3691
(g3118
F-0.033000000000000002
g11
tp3692
a(g3195
F-0.045999999999999999
g11
tp3693
a(g3138
F0.10000000000000001
g44
tp3694
a(g3209
F-0.0060000000000000001
g11
tp3695
a(g3126
F0.0080000000000000002
g11
tp3696
a(g3244
F0.12
g44
tp3697
a(g3140
F-0.068000000000000005
g11
tp3698
a(g3202
F-0.035000000000000003
g11
tp3699
a(g3148
F-0.035000000000000003
g11
tp3700
a(g3241
F0.025000000000000001
g11
tp3701
a(g3214
F-0.027
g11
tp3702
a(g3247
F0.001
g11
tp3703
a(g3205
F0.010999999999999999
g11
tp3704
a(g3190
F0.021999999999999999
g11
tp3705
a(g3134
F-0.067000000000000004
g11
tp3706
a(g3407
F-0.036999999999999998
g11
tp3707
a(g3124
F0.031
g11
tp3708
a(g3188
F-0.027
g11
tp3709
a(g3668
F0.058000000000000003
g11
tp3710
a(g3238
F0.123
g11
tp3711
a(g3158
F0.123
g11
tp3712
a(g3150
F-0.055
g11
tp3713
a(S'Spectre'
p3714
F0.001
g11
tp3715
a(S'Wraith King'
p3716
F-0.11
g11
tp3717
a(g3168
F0.043999999999999997
g11
tp3718
asg3177
(lp3719
(g3485
F-0.002
g11
tp3720
a(g3118
F-0.19400000000000001
g44
tp3721
a(g3124
F0.016
g11
tp3722
a(g3116
F-0.002
g11
tp3723
a(g3152
F0.035999999999999997
g11
tp3724
a(g3164
F0.024
g11
tp3725
asg3150
(lp3726
(g3116
F0.088999999999999996
g11
tp3727
a(g3138
F0.0089999999999999993
g11
tp3728
a(g3118
F-0.019
g11
tp3729
a(g3122
F-0.115
g11
tp3730
asg3192
(lp3731
(g3152
F-0.024
g11
tp3732
a(g3136
F-0.002
g11
tp3733
a(g3130
F-0.060999999999999999
g11
tp3734
a(g3118
F-0.037999999999999999
g11
tp3735
a(g3126
F-0.121
g11
tp3736
a(g3128
F0.043999999999999997
g11
tp3737
a(g3116
F0.13
g11
tp3738
asg3144
(lp3739
(g3118
F-0.11899999999999999
g44
tp3740
a(g3138
F0.13400000000000001
g44
tp3741
a(g3195
F0.014999999999999999
g11
tp3742
a(g3146
F0.076999999999999999
g11
tp3743
a(g3122
F0.052999999999999999
g11
tp3744
a(g3205
F-0.079000000000000001
g11
tp3745
a(g3130
F0.001
g11
tp3746
a(g3202
F-0.01
g11
tp3747
a(g3132
F0.001
g11
tp3748
a(g3148
F0.184
g44
tp3749
a(g3407
F-0.042000000000000003
g11
tp3750
a(g3211
F-0.128
g11
tp3751
assI683
g2
(g3
tRp3752
S'Disruptor'
p3753
(lp3754
(S'Vengeful Spirit'
p3755
F-0.010999999999999999
g11
tp3756
a(S'Axe'
p3757
F-0.02
g11
tp3758
a(S'Juggernaut'
p3759
F0.059999999999999998
g11
tp3760
a(S'Earthshaker'
p3761
F-0.052999999999999999
g11
tp3762
a(S'Troll Warlord'
p3763
F-0.031
g11
tp3764
a(S'Shadow Fiend'
p3765
F0.014
g11
tp3766
asS'Dazzle'
p3767
(lp3768
(g3757
F-0.0030000000000000001
g11
tp3769
a(S'Bristleback'
p3770
F-0.055
g11
tp3771
a(g3765
F0.058000000000000003
g11
tp3772
a(g3755
F-0.016
g11
tp3773
a(g3761
F0.158
g44
tp3774
a(S'Lion'
p3775
F-0.082000000000000003
g11
tp3776
a(g3763
F0.012999999999999999
g11
tp3777
a(S'Brewmaster'
p3778
F0.17599999999999999
g44
tp3779
asg3759
(lp3780
(S'Vengeful Spirit'
p3781
F0.053999999999999999
g11
tp3782
a(S'Lion'
p3783
F0.055
g11
tp3784
a(S'Skywrath Mage'
p3785
F-0.050999999999999997
g11
tp3786
a(g3761
F0.031
g11
tp3787
a(g3757
F0.031
g11
tp3788
a(S'Shadow Fiend'
p3789
F0.017999999999999999
g11
tp3790
a(S'Rubick'
p3791
F-0.0060000000000000001
g11
tp3792
a(S'Witch Doctor'
p3793
F-0.035999999999999997
g11
tp3794
a(S'Storm Spirit'
p3795
F-0.033000000000000002
g11
tp3796
a(S'Queen of Pain'
p3797
F0.084000000000000005
g11
tp3798
a(S'Clockwerk'
p3799
F0.049000000000000002
g11
tp3800
a(S'Magnus'
p3801
F0.083000000000000004
g11
tp3802
a(S'Batrider'
p3803
F0.045999999999999999
g11
tp3804
a(S'Lina'
p3805
F-0.037999999999999999
g11
tp3806
a(S'Ancient Apparition'
p3807
F0.012999999999999999
g11
tp3808
a(S'Sniper'
p3809
F0.042000000000000003
g11
tp3810
a(g3753
F-0.029999999999999999
g11
tp3811
a(S'Phoenix'
p3812
F-0.083000000000000004
g11
tp3813
a(S'Zeus'
p3814
F0.035999999999999997
g11
tp3815
a(S'Chen'
p3816
F0.074999999999999997
g11
tp3817
a(S'Silencer'
p3818
F-0.155
g44
tp3819
a(S'Viper'
p3820
F-0.14699999999999999
g44
tp3821
asg3801
(lp3822
(g3759
F0.064000000000000001
g11
tp3823
a(g3755
F0.028000000000000001
g11
tp3824
a(S'Troll Warlord'
p3825
F-0.025000000000000001
g11
tp3826
a(g3775
F0.085999999999999993
g11
tp3827
asS'Faceless Void'
p3828
(lp3829
(g3785
F-0.01
g11
tp3830
a(g3755
F0.114
g11
tp3831
a(g3775
F-0.098000000000000004
g11
tp3832
a(S'Witch Doctor'
p3833
F-0.021000000000000001
g11
tp3834
asS'Tiny'
p3835
(lp3836
(S'Io'
p3837
F-0.002
g11
tp3838
asg3797
(lp3839
(g3775
F-0.065000000000000002
g11
tp3840
a(g3755
F0.010999999999999999
g11
tp3841
a(g3761
F0.027
g11
tp3842
a(g3757
F-0.045999999999999999
g11
tp3843
a(g3833
F-0.025999999999999999
g11
tp3844
a(g3785
F-0.023
g11
tp3845
a(g3759
F0.151
g44
tp3846
a(g3763
F-0.0060000000000000001
g11
tp3847
a(g3791
F-0.0060000000000000001
g11
tp3848
a(g3799
F0.058000000000000003
g11
tp3849
a(S'Lina'
p3850
F0.021999999999999999
g11
tp3851
a(g3816
F0.192
g44
tp3852
a(g3770
F-0.10000000000000001
g11
tp3853
a(g3803
F0.0080000000000000002
g11
tp3854
a(g3807
F0.067000000000000004
g11
tp3855
a(g3765
F0
g11
tp3856
a(g3837
F-0.025000000000000001
g11
tp3857
a(S'Treant Protector'
p3858
F-0.02
g11
tp3859
asg3820
(lp3860
(g3755
F0.067000000000000004
g11
tp3861
a(g3833
F-0.025999999999999999
g11
tp3862
a(g3761
F0.019
g11
tp3863
a(g3785
F-0.039
g11
tp3864
a(g3775
F0.048000000000000001
g11
tp3865
a(g3803
F0.078
g11
tp3866
a(g3759
F-0.042000000000000003
g11
tp3867
a(g3757
F0.0070000000000000001
g11
tp3868
asg3795
(lp3869
(g3761
F0.002
g11
tp3870
a(g3783
F-0.028000000000000001
g11
tp3871
a(g3781
F0.070000000000000007
g11
tp3872
a(g3785
F-0.089999999999999997
g11
tp3873
a(g3759
F0.040000000000000001
g11
tp3874
a(g3799
F0.035000000000000003
g11
tp3875
a(g3793
F-0.035000000000000003
g11
tp3876
a(g3757
F-0.152
g44
tp3877
a(g3763
F-0.044999999999999998
g11
tp3878
a(g3807
F0.082000000000000003
g11
tp3879
a(g3791
F-0.0089999999999999993
g11
tp3880
a(g3814
F-0.076999999999999999
g11
tp3881
a(g3812
F0.0060000000000000001
g11
tp3882
a(g3803
F-0.039
g11
tp3883
a(g3816
F0.161
g44
tp3884
a(g3770
F-0.112
g11
tp3885
a(g3805
F-0.034000000000000002
g11
tp3886
asS'Lycan'
p3887
(lp3888
(g3755
F0.035000000000000003
g11
tp3889
a(g3775
F-0.021999999999999999
g11
tp3890
a(g3757
F-0.075999999999999998
g11
tp3891
asg3809
(lp3892
(g3761
F-0.021000000000000001
g11
tp3893
a(g3755
F0
g11
tp3894
a(g3775
F-0.029000000000000001
g11
tp3895
a(g3858
F0.087999999999999995
g11
tp3896
a(g3757
F-0.034000000000000002
g11
tp3897
a(g3833
F-0.0080000000000000002
g11
tp3898
a(g3799
F0.032000000000000001
g11
tp3899
a(g3785
F-0.001
g11
tp3900
a(g3759
F0.057000000000000002
g11
tp3901
a(g3770
F-0.028000000000000001
g11
tp3902
a(g3791
F-0.025999999999999999
g11
tp3903
a(g3803
F-0.042999999999999997
g11
tp3904
a(g3816
F0.127
g11
tp3905
a(g3763
F-0.012
g11
tp3906
asS'Spirit Breaker'
p3907
(lp3908
(g3763
F0.033000000000000002
g11
tp3909
a(g3850
F0.058000000000000003
g11
tp3910
a(g3775
F-0.057000000000000002
g11
tp3911
a(g3755
F0.035000000000000003
g11
tp3912
asg3812
(lp3913
(g3775
F0.0040000000000000001
g11
tp3914
a(g3825
F-0.029000000000000001
g11
tp3915
a(g3755
F0.012
g11
tp3916
a(g3759
F0.010999999999999999
g11
tp3917
a(g3761
F-0.0060000000000000001
g11
tp3918
a(S'Storm Spirit'
p3919
F0.027
g11
tp3920
a(S'Skywrath Mage'
p3921
F0.036999999999999998
g11
tp3922
asS'Zeus'
p3923
(lp3924
(g3783
F0.024
g11
tp3925
a(g3755
F-0.0070000000000000001
g11
tp3926
a(g3761
F0.040000000000000001
g11
tp3927
a(g3763
F0.065000000000000002
g11
tp3928
a(g3803
F0.062
g11
tp3929
a(g3757
F-0.075999999999999998
g11
tp3930
a(g3793
F-0.115
g11
tp3931
a(g3759
F0.079000000000000001
g11
tp3932
a(g3919
F-0.107
g11
tp3933
a(g3785
F-0.049000000000000002
g11
tp3934
a(g3799
F-0.089999999999999997
g11
tp3935
asS'Beastmaster'
p3936
(lp3937
(g3755
F0.001
g11
tp3938
a(g3775
F0.051999999999999998
g11
tp3939
asS'Anti-Mage'
p3940
(lp3941
(g3781
F0.02
g11
tp3942
a(g3803
F-0.0030000000000000001
g11
tp3943
a(g3783
F-0.016
g11
tp3944
a(g3785
F0.052999999999999999
g11
tp3945
asg3818
(lp3946
(g3759
F-0.024
g11
tp3947
asS'Windranger'
p3948
(lp3949
(g3755
F0.055
g11
tp3950
asS'Drow Ranger'
p3951
(lp3952
(g3781
F0.035999999999999997
g11
tp3953
a(S'Visage'
p3954
F0.094
g11
tp3955
asg3807
(lp3956
(g3755
F-0.028000000000000001
g11
tp3957
a(g3775
F0.050999999999999997
g11
tp3958
a(g3761
F-0.0050000000000000001
g11
tp3959
a(g3791
F0.115
g44
tp3960
a(g3757
F-0.072999999999999995
g11
tp3961
a(S'Batrider'
p3962
F0.033000000000000002
g11
tp3963
a(g3759
F0.056000000000000001
g11
tp3964
a(g3919
F0.051999999999999998
g11
tp3965
a(g3765
F-0.024
g11
tp3966
a(S'Queen of Pain'
p3967
F0.042999999999999997
g11
tp3968
a(S'Morphling'
p3969
F0.079000000000000001
g11
tp3970
a(g3763
F0.02
g11
tp3971
a(S'Clockwerk'
p3972
F0.112
g11
tp3973
a(S'Slark'
p3974
F-0.072999999999999995
g11
tp3975
asS'Broodmother'
p3976
(lp3977
(g3755
F-0.0050000000000000001
g11
tp3978
asS'Doom'
p3979
(lp3980
(g3755
F-0.19500000000000001
g44
tp3981
asg3781
(lp3982
(g3765
F0.016
g11
tp3983
a(g3759
F0.097000000000000003
g44
tp3984
a(g3803
F0.0050000000000000001
g11
tp3985
a(g3757
F-0.027
g11
tp3986
a(g3763
F0.017999999999999999
g11
tp3987
a(g3797
F-0.012999999999999999
g11
tp3988
a(g3799
F-0.028000000000000001
g11
tp3989
a(g3807
F-0.028000000000000001
g11
tp3990
a(g3814
F-0.0070000000000000001
g11
tp3991
a(g3809
F0.028000000000000001
g11
tp3992
a(g3770
F-0.059999999999999998
g11
tp3993
a(g3919
F0.040000000000000001
g11
tp3994
a(g3785
F0.0040000000000000001
g11
tp3995
a(g3951
F0.014
g11
tp3996
a(g3778
F0.02
g11
tp3997
a(g3820
F0.0050000000000000001
g11
tp3998
a(S'Tidehunter'
p3999
F-0.083000000000000004
g11
tp4000
a(g3805
F0.017000000000000001
g11
tp4001
a(g3783
F-0.067000000000000004
g11
tp4002
a(S'Ember Spirit'
p4003
F0.063
g11
tp4004
a(g3974
F-0.078
g11
tp4005
a(S'Puck'
p4006
F-0.13900000000000001
g44
tp4007
a(g3793
F0.042000000000000003
g11
tp4008
a(S'Faceless Void'
p4009
F-0.0040000000000000001
g11
tp4010
a(g3753
F-0.058000000000000003
g11
tp4011
a(g3761
F0.072999999999999995
g11
tp4012
a(S'Medusa'
p4013
F-0.051999999999999998
g11
tp4014
a(g3887
F0.025000000000000001
g11
tp4015
a(g3801
F0.089999999999999997
g11
tp4016
a(g3969
F-0.017000000000000001
g11
tp4017
a(g3812
F-0.039
g11
tp4018
a(g3767
F-0.062
g11
tp4019
a(g3936
F0.033000000000000002
g11
tp4020
a(g3940
F-0.057000000000000002
g11
tp4021
a(S'Enigma'
p4022
F0.092999999999999999
g11
tp4023
a(g3948
F-0.11
g11
tp4024
a(S'Templar Assassin'
p4025
F0.047
g11
tp4026
a(S'Invoker'
p4027
F-0.042000000000000003
g11
tp4028
a(g3816
F0.094
g11
tp4029
a(S'Spirit Breaker'
p4030
F0.016
g11
tp4031
a(g3976
F0.027
g11
tp4032
a(g3979
F-0.23799999999999999
g44
tp4033
a(g3837
F0.017999999999999999
g11
tp4034
asg3805
(lp4035
(g3757
F0.025999999999999999
g11
tp4036
a(g3755
F0.047
g11
tp4037
a(g3761
F0.032000000000000001
g11
tp4038
a(g3763
F0.021999999999999999
g11
tp4039
a(g3759
F0.035000000000000003
g11
tp4040
a(g3797
F0.028000000000000001
g11
tp4041
a(g4030
F0.069000000000000006
g11
tp4042
a(g3765
F0.062
g11
tp4043
a(g3803
F-0.090999999999999998
g11
tp4044
a(g3783
F-0.090999999999999998
g11
tp4045
a(g3791
F0.024
g11
tp4046
a(g3858
F0.129
g11
tp4047
a(g3919
F-0.034000000000000002
g11
tp4048
asg4022
(lp4049
(g3755
F0.045999999999999999
g11
tp4050
asg3858
(lp4051
(S'Sniper'
p4052
F0.081000000000000003
g11
tp4053
a(g3850
F0.064000000000000001
g11
tp4054
a(g3967
F-0.079000000000000001
g11
tp4055
a(g3763
F0.021000000000000001
g11
tp4056
asS'Sand King'
p4057
(lp4058
(g3785
F-0.051999999999999998
g11
tp4059
asg3803
(lp4060
(g3755
F0.014
g11
tp4061
a(g3775
F0.029999999999999999
g11
tp4062
a(g3761
F0.055
g11
tp4063
a(g3785
F-0.029000000000000001
g11
tp4064
a(g3765
F-0.037999999999999999
g11
tp4065
a(g3833
F0.0030000000000000001
g11
tp4066
a(g3759
F0.098000000000000004
g11
tp4067
a(g3807
F0.042000000000000003
g11
tp4068
a(g3923
F0.070999999999999994
g11
tp4069
a(g3791
F-0.021999999999999999
g11
tp4070
a(g3967
F-0.0070000000000000001
g11
tp4071
a(g3850
F-0.112
g11
tp4072
a(g3919
F-0.059999999999999998
g11
tp4073
a(g3763
F0.012
g11
tp4074
a(S'Anti-Mage'
F-0.070999999999999994
g11
tp4075
a(g4052
F-0.0060000000000000001
g11
tp4076
a(S'Viper'
p4077
F0.025000000000000001
g11
tp4078
asg3778
(lp4079
(g3755
F-0.02
g11
tp4080
a(g3775
F0.041000000000000002
g11
tp4081
a(g3785
F-0.042999999999999997
g11
tp4082
a(g3761
F0.044999999999999998
g11
tp4083
a(S'Dazzle'
p4084
F0.089999999999999997
g11
tp4085
a(g3791
F-0.021999999999999999
g11
tp4086
a(g3833
F-0.042999999999999997
g11
tp4087
a(g3765
F-0.001
g11
tp4088
asg3972
(lp4089
(g3785
F0.039
g11
tp4090
a(g3775
F-0.014
g11
tp4091
a(g3755
F-0.029999999999999999
g11
tp4092
a(g3833
F-0.069000000000000006
g11
tp4093
a(g3765
F-0.081000000000000003
g11
tp4094
a(g3763
F-0.050000000000000003
g11
tp4095
a(g3919
F0.0030000000000000001
g11
tp4096
a(g3759
F0.089999999999999997
g11
tp4097
a(g3761
F-0.097000000000000003
g11
tp4098
a(g4052
F0.058000000000000003
g11
tp4099
a(g3967
F0.032000000000000001
g11
tp4100
a(g3816
F0.050999999999999997
g11
tp4101
a(g3791
F-0.0080000000000000002
g11
tp4102
a(g3807
F0.11
g11
tp4103
a(g3923
F-0.091999999999999998
g11
tp4104
a(g3837
F0.128
g11
tp4105
asg3833
(lp4106
(g3799
F-0.014
g11
tp4107
a(g3761
F0.014
g11
tp4108
a(g3765
F0.034000000000000002
g11
tp4109
a(g3757
F0.024
g11
tp4110
a(g3759
F0.059999999999999998
g11
tp4111
a(g3797
F0.0030000000000000001
g11
tp4112
a(g3919
F-0.012
g11
tp4113
a(g3803
F0.047
g11
tp4114
a(g3763
F-0.012999999999999999
g11
tp4115
a(g3809
F0.072999999999999995
g11
tp4116
a(g3755
F0.095000000000000001
g11
tp4117
a(g3770
F-0.042000000000000003
g11
tp4118
a(g3923
F-0.062
g11
tp4119
a(S'Tidehunter'
p4120
F0.02
g11
tp4121
a(g3820
F-0.035000000000000003
g11
tp4122
a(g4009
F-0.085999999999999993
g11
tp4123
a(g3816
F0.088999999999999996
g11
tp4124
a(g3778
F0.050000000000000003
g11
tp4125
asg3974
(lp4126
(g3755
F0.002
g11
tp4127
a(g3775
F0.079000000000000001
g11
tp4128
a(g3785
F-0.045999999999999999
g11
tp4129
a(g3761
F0.056000000000000001
g11
tp4130
a(g3757
F-0.048000000000000001
g11
tp4131
a(S'Ancient Apparition'
p4132
F0.0070000000000000001
g11
tp4133
a(S'Io'
p4134
F0.056000000000000001
g11
tp4135
asg3757
(lp4136
(g3785
F-0.040000000000000001
g11
tp4137
a(g3781
F0.023
g11
tp4138
a(g3783
F0
g11
tp4139
a(g3789
F-0.0040000000000000001
g11
tp4140
a(g3767
F0.001
g11
tp4141
a(S'Juggernaut'
p4142
F0.124
g44
tp4143
a(g3791
F0.025999999999999999
g11
tp4144
a(g3793
F0.021000000000000001
g11
tp4145
a(g3805
F0.045999999999999999
g11
tp4146
a(g3797
F-0.02
g11
tp4147
a(S'Earthshaker'
p4148
F-0.083000000000000004
g11
tp4149
a(g3837
F0.02
g11
tp4150
a(g3809
F0.043999999999999997
g11
tp4151
a(g3795
F-0.13200000000000001
g44
tp4152
a(g3763
F-0.034000000000000002
g11
tp4153
a(g3807
F-0.023
g11
tp4154
a(g3753
F-0.017000000000000001
g11
tp4155
a(g3814
F-0.025999999999999999
g11
tp4156
a(g3974
F-0.078
g11
tp4157
a(g3770
F-0.154
g44
tp4158
a(g4013
F-0.114
g11
tp4159
a(g3820
F-0.0050000000000000001
g11
tp4160
a(g3887
F-0.035999999999999997
g11
tp4161
asg3763
(lp4162
(g3775
F-0.025999999999999999
g11
tp4163
a(g3755
F0.033000000000000002
g11
tp4164
a(g3785
F-0.027
g11
tp4165
a(S'Rubick'
p4166
F0.042999999999999997
g11
tp4167
a(g3761
F-0.037999999999999999
g11
tp4168
a(g3972
F-0.033000000000000002
g11
tp4169
a(g3850
F0.0070000000000000001
g11
tp4170
a(g3967
F-0.014999999999999999
g11
tp4171
a(g3833
F-0.050999999999999997
g11
tp4172
a(g3812
F-0.065000000000000002
g11
tp4173
a(g3907
F0.029000000000000001
g11
tp4174
a(g3919
F-0.059999999999999998
g11
tp4175
a(g3757
F-0.069000000000000006
g11
tp4176
a(g3923
F0.080000000000000002
g11
tp4177
a(g3801
F0.051999999999999998
g11
tp4178
a(S'Chen'
p4179
F0.16300000000000001
g44
tp4180
a(g4132
F0.035000000000000003
g11
tp4181
a(S'Disruptor'
p4182
F-0.063
g11
tp4183
a(g3962
F0.017999999999999999
g11
tp4184
a(g4084
F-0.017999999999999999
g11
tp4185
a(S'Treant Protector'
p4186
F0.070999999999999994
g11
tp4187
a(g4052
F0.031
g11
tp4188
asg3770
(lp4189
(g3775
F0.024
g11
tp4190
a(g3755
F0.017000000000000001
g11
tp4191
a(g4134
F0.029000000000000001
g11
tp4192
a(g3761
F-0.001
g11
tp4193
a(g3765
F0.073999999999999996
g11
tp4194
a(g4084
F-0.024
g11
tp4195
a(g3833
F-0.017999999999999999
g11
tp4196
a(g3785
F-0.123
g44
tp4197
a(g3967
F-0.047
g11
tp4198
a(g4052
F0.076999999999999999
g11
tp4199
a(g3919
F-0.065000000000000002
g11
tp4200
a(g3757
F-0.127
g11
tp4201
asg3785
(lp4202
(g3757
F-0.028000000000000001
g11
tp4203
a(g3761
F0.0030000000000000001
g11
tp4204
a(g3765
F-0.021000000000000001
g11
tp4205
a(g3972
F0.10299999999999999
g44
tp4206
a(g3759
F0.053999999999999999
g11
tp4207
a(g3825
F0.02
g11
tp4208
a(g3962
F0.024
g11
tp4209
a(g3755
F0.066000000000000003
g11
tp4210
a(g3919
F-0.058000000000000003
g11
tp4211
a(g4003
F0.058000000000000003
g11
tp4212
a(g3828
F-0.066000000000000003
g11
tp4213
a(g3967
F0.014999999999999999
g11
tp4214
a(S'Slark'
p4215
F-0.064000000000000001
g11
tp4216
a(S'Brewmaster'
p4217
F0.058999999999999997
g11
tp4218
a(g4052
F0.088999999999999996
g11
tp4219
a(g4134
F0.002
g11
tp4220
a(g3775
F0.052999999999999999
g11
tp4221
a(S'Bristleback'
p4222
F-0.13800000000000001
g44
tp4223
a(g4057
F-0.035999999999999997
g11
tp4224
a(g4120
F-0.0030000000000000001
g11
tp4225
a(g3923
F0.012999999999999999
g11
tp4226
a(S'Medusa'
p4227
F0.037999999999999999
g11
tp4228
a(g4077
F-0.039
g11
tp4229
a(g3812
F0.048000000000000001
g11
tp4230
a(S'Anti-Mage'
F0.037999999999999999
g11
tp4231
asg3761
(lp4232
(g3789
F-0.014999999999999999
g11
tp4233
a(g3785
F-0.037999999999999999
g11
tp4234
a(g3795
F-0.0070000000000000001
g11
tp4235
a(g3783
F-0.0070000000000000001
g11
tp4236
a(g3797
F0.024
g11
tp4237
a(g3809
F0.028000000000000001
g11
tp4238
a(g4142
F0.095000000000000001
g44
tp4239
a(g3803
F0.067000000000000004
g11
tp4240
a(g3763
F-0.032000000000000001
g11
tp4241
a(g3793
F-0.017999999999999999
g11
tp4242
a(g3805
F0.023
g11
tp4243
a(g3757
F-0.112
g44
tp4244
a(g3799
F-0.073999999999999996
g11
tp4245
a(g3807
F0.016
g11
tp4246
a(g3814
F0.060999999999999999
g11
tp4247
a(g3770
F-0.057000000000000002
g11
tp4248
a(g3781
F0.094
g11
tp4249
a(g3778
F0.106
g11
tp4250
a(g3974
F-0.0030000000000000001
g11
tp4251
a(g3812
F-0.035999999999999997
g11
tp4252
a(g4013
F-0.02
g11
tp4253
a(g3753
F-0.079000000000000001
g11
tp4254
a(S'Morphling'
p4255
F0.033000000000000002
g11
tp4256
a(g3767
F0.13300000000000001
g44
tp4257
a(g3820
F-0.021999999999999999
g11
tp4258
asg3954
(lp4259
(g3951
F0.042000000000000003
g11
tp4260
asg4003
(lp4261
(g3921
F0.029999999999999999
g11
tp4262
a(g3755
F0.097000000000000003
g11
tp4263
a(g3775
F-0.021999999999999999
g11
tp4264
asg4006
(lp4265
(g3781
F-0.055
g11
tp4266
a(g3783
F0.124
g11
tp4267
asg3789
(lp4268
(g3761
F-0.01
g11
tp4269
a(g3781
F0.042000000000000003
g11
tp4270
a(g3783
F-0.034000000000000002
g11
tp4271
a(g3785
F-0.057000000000000002
g11
tp4272
a(g3757
F-0.028000000000000001
g11
tp4273
a(g3799
F-0.052999999999999999
g11
tp4274
a(g3759
F0.086999999999999994
g11
tp4275
a(g3793
F0.0070000000000000001
g11
tp4276
a(g3791
F0.043999999999999997
g11
tp4277
a(g3803
F-0.021000000000000001
g11
tp4278
a(g3816
F0.094
g11
tp4279
a(g3770
F0.023
g11
tp4280
a(g3767
F0.037999999999999999
g11
tp4281
a(g3805
F0.058000000000000003
g11
tp4282
a(g3807
F0.002
g11
tp4283
a(g3797
F0.002
g11
tp4284
a(g3999
F-0.042999999999999997
g11
tp4285
a(g3753
F-0.0070000000000000001
g11
tp4286
a(g3778
F0.065000000000000002
g11
tp4287
asg4025
(lp4288
(g3755
F0.082000000000000003
g11
tp4289
a(g3775
F-0.071999999999999995
g11
tp4290
asg3969
(lp4291
(g3781
F-0.014999999999999999
g11
tp4292
a(g3783
F0.078
g11
tp4293
a(g3807
F0.081000000000000003
g11
tp4294
a(g3761
F0.014
g11
tp4295
asg3783
(lp4296
(g3765
F-0.035000000000000003
g11
tp4297
a(g3759
F0.123
g44
tp4298
a(g3763
F-0.016
g11
tp4299
a(g3797
F-0.064000000000000001
g11
tp4300
a(g3757
F-0.025000000000000001
g11
tp4301
a(g3761
F-0.0030000000000000001
g11
tp4302
a(g3923
F0.049000000000000002
g11
tp4303
a(g3919
F-0.033000000000000002
g11
tp4304
a(g3803
F0.045999999999999999
g11
tp4305
a(g3799
F0.012999999999999999
g11
tp4306
a(g3770
F-0.028000000000000001
g11
tp4307
a(g3809
F0.024
g11
tp4308
a(g3755
F-0.042000000000000003
g11
tp4309
a(g3816
F0.16400000000000001
g44
tp4310
a(g3812
F-0.021999999999999999
g11
tp4311
a(g3807
F0.075999999999999998
g11
tp4312
a(g3974
F0.024
g11
tp4313
a(g3778
F0.106
g44
tp4314
a(g3999
F0.031
g11
tp4315
a(g3837
F-0.035000000000000003
g11
tp4316
a(g3785
F0.016
g11
tp4317
a(g3969
F0.10100000000000001
g11
tp4318
a(g4003
F-0.031
g11
tp4319
a(g3850
F-0.096000000000000002
g11
tp4320
a(g3887
F-0.0070000000000000001
g11
tp4321
a(g4030
F-0.050999999999999997
g11
tp4322
a(g3801
F0.17299999999999999
g44
tp4323
a(g4006
F0.065000000000000002
g11
tp4324
a(g3767
F-0.10299999999999999
g11
tp4325
a(g4009
F-0.191
g44
tp4326
a(g3820
F0.010999999999999999
g11
tp4327
a(g3936
F0.109
g11
tp4328
a(S'Anti-Mage'
F-0.068000000000000005
g11
tp4329
a(g4013
F0.060999999999999999
g11
tp4330
a(g4025
F-0.082000000000000003
g11
tp4331
a(g4027
F-0.060999999999999999
g11
tp4332
asg3999
(lp4333
(g3755
F-0.017999999999999999
g11
tp4334
a(g3775
F0.070999999999999994
g11
tp4335
a(g3785
F0
g11
tp4336
a(g3793
F0.032000000000000001
g11
tp4337
a(g3765
F-0.0040000000000000001
g11
tp4338
asg3837
(lp4339
(g3835
F0.0070000000000000001
g11
tp4340
a(g3757
F-0.040000000000000001
g11
tp4341
a(g3770
F-0.058000000000000003
g11
tp4342
a(g3775
F-0.070000000000000007
g11
tp4343
a(g3785
F-0.070000000000000007
g11
tp4344
a(g3967
F-0.058999999999999997
g11
tp4345
a(g3972
F0.12
g11
tp4346
a(g3974
F-0.034000000000000002
g11
tp4347
a(g3755
F0.0080000000000000002
g11
tp4348
asg3816
(lp4349
(g3775
F0.065000000000000002
g11
tp4350
a(g3765
F-0.0060000000000000001
g11
tp4351
a(g3972
F-0.021000000000000001
g11
tp4352
a(g3967
F0.094
g11
tp4353
a(g3763
F0.073999999999999996
g11
tp4354
a(g3791
F-0.098000000000000004
g11
tp4355
a(g3755
F0.02
g11
tp4356
a(g3919
F0.057000000000000002
g11
tp4357
a(g4052
F0.081000000000000003
g11
tp4358
a(g3759
F0.043999999999999997
g11
tp4359
a(g3833
F-0.037999999999999999
g11
tp4360
asg4013
(lp4361
(g3755
F0.0080000000000000002
g11
tp4362
a(g3761
F0.019
g11
tp4363
a(g3785
F0.035999999999999997
g11
tp4364
a(g3775
F0.096000000000000002
g11
tp4365
a(g3757
F-0.104
g11
tp4366
asg3791
(lp4367
(g3757
F-0.0060000000000000001
g11
tp4368
a(g3763
F0.045999999999999999
g11
tp4369
a(g3759
F0.055
g11
tp4370
a(g3765
F0.035999999999999997
g11
tp4371
a(g3967
F-0.012
g11
tp4372
a(g4132
F0.13300000000000001
g44
tp4373
a(g3962
F-0.012999999999999999
g11
tp4374
a(g3919
F-0.021000000000000001
g11
tp4375
a(g4052
F0.02
g11
tp4376
a(g3972
F0.012
g11
tp4377
a(g4179
F-0.0060000000000000001
g11
tp4378
a(g3850
F0.012
g11
tp4379
a(g4217
F0.035999999999999997
g11
tp4380
asg4027
(lp4381
(g3755
F0.040000000000000001
g11
tp4382
a(g3775
F-0.0040000000000000001
g11
tp4383
assI684
g2
(g3
tRp4384
S'Disruptor'
p4385
(lp4386
(S'Gyrocopter'
p4387
F0.059999999999999998
g11
tp4388
a(S'Earthshaker'
p4389
F-0.014
g11
tp4390
a(S'Queen of Pain'
p4391
F0.027
g11
tp4392
a(S'Clockwerk'
p4393
F-0.014
g11
tp4394
a(S'Shadow Fiend'
p4395
F-0.049000000000000002
g11
tp4396
a(S'Leshrac'
p4397
F0.081000000000000003
g11
tp4398
a(S'Undying'
p4399
F0.111
g11
tp4400
a(S'Dark Seer'
p4401
F-0.14699999999999999
g11
tp4402
asS'Dazzle'
p4403
(lp4404
(S'Gyrocopter'
p4405
F0.017999999999999999
g11
tp4406
a(g4395
F-0.058000000000000003
g11
tp4407
a(g4389
F0.042000000000000003
g11
tp4408
a(S'Tusk'
p4409
F-0.014
g11
tp4410
a(S'Clockwerk'
p4411
F0.069000000000000006
g11
tp4412
a(g4391
F0.049000000000000002
g11
tp4413
a(S'Lina'
p4414
F-0.042999999999999997
g11
tp4415
a(S'Storm Spirit'
p4416
F-0.010999999999999999
g11
tp4417
a(S'Phantom Lancer'
p4418
F-0.010999999999999999
g11
tp4419
a(S'Dark Seer'
p4420
F-0.051999999999999998
g11
tp4421
a(S'Spirit Breaker'
p4422
F0.044999999999999998
g11
tp4423
a(S'Leshrac'
p4424
F0.24199999999999999
g44
tp4425
a(S'Rubick'
p4426
F0.080000000000000002
g11
tp4427
a(S'Anti-Mage'
F0.068000000000000005
g11
tp4428
a(S'Undying'
p4429
F0.098000000000000004
g11
tp4430
a(S'Bloodseeker'
p4431
F0.113
g11
tp4432
a(S'Dragon Knight'
p4433
F-0.02
g11
tp4434
a(S'Ember Spirit'
p4435
F-0.02
g11
tp4436
asS'Juggernaut'
p4437
(lp4438
(g4426
F-0.032000000000000001
g11
tp4439
a(S'Shadow Fiend'
p4440
F0.127
g11
tp4441
asS'Naga Siren'
p4442
(lp4443
(g4414
F0.064000000000000001
g11
tp4444
a(g4391
F-0.017999999999999999
g11
tp4445
a(g4409
F0.084000000000000005
g11
tp4446
asS'Razor'
p4447
(lp4448
(g4426
F-0.063
g11
tp4449
a(g4389
F-0.017000000000000001
g11
tp4450
asg4429
(lp4451
(g4387
F-0.0040000000000000001
g11
tp4452
a(g4391
F0.072999999999999995
g11
tp4453
a(g4414
F-0.034000000000000002
g11
tp4454
a(g4409
F0.14499999999999999
g44
tp4455
a(S'Witch Doctor'
p4456
F0.024
g11
tp4457
a(S'Spirit Breaker'
p4458
F0.066000000000000003
g11
tp4459
a(g4416
F-0.017999999999999999
g11
tp4460
a(g4426
F-0.10000000000000001
g11
tp4461
a(g4397
F0.027
g11
tp4462
a(g4403
F0.073999999999999996
g11
tp4463
a(S'Templar Assassin'
p4464
F0.191
g44
tp4465
a(g4385
F0.081000000000000003
g11
tp4466
a(S'Bounty Hunter'
p4467
F0.036999999999999998
g11
tp4468
asg4433
(lp4469
(g4405
F0.045999999999999999
g11
tp4470
a(g4426
F-0.0070000000000000001
g11
tp4471
a(g4411
F-0.099000000000000005
g11
tp4472
a(g4391
F0.002
g11
tp4473
a(g4414
F-0.17199999999999999
g44
tp4474
a(g4420
F-0.16
g11
tp4475
a(g4389
F-0.037999999999999999
g11
tp4476
a(S'Dazzle'
p4477
F-0.053999999999999999
g11
tp4478
a(S'Chen'
p4479
F0.113
g11
tp4480
asS'Tiny'
p4481
(lp4482
(S'Io'
p4483
F-0.016
g11
tp4484
asS'Queen of Pain'
p4485
(lp4486
(g4389
F-0.071999999999999995
g11
tp4487
a(g4426
F-0.045999999999999999
g11
tp4488
a(g4411
F-0.014999999999999999
g11
tp4489
a(g4456
F-0.039
g11
tp4490
a(S'Winter Wyvern'
p4491
F-0.048000000000000001
g11
tp4492
a(g4405
F-0.059999999999999998
g11
tp4493
a(g4477
F0.070999999999999994
g11
tp4494
a(g4418
F0.016
g11
tp4495
a(g4420
F-0.107
g11
tp4496
a(g4409
F0.096000000000000002
g11
tp4497
a(S'Lion'
p4498
F0.031
g11
tp4499
a(g4385
F0.042999999999999997
g11
tp4500
a(S'Bounty Hunter'
p4501
F0.125
g44
tp4502
a(g4429
F0.11899999999999999
g11
tp4503
a(g4395
F-0.058999999999999997
g11
tp4504
a(g4422
F0.010999999999999999
g11
tp4505
a(g4414
F-0.153
g44
tp4506
a(S'Bristleback'
p4507
F-0.17199999999999999
g44
tp4508
a(g4424
F0.002
g11
tp4509
a(S'Shadow Demon'
p4510
F-0.083000000000000004
g11
tp4511
a(S'Ancient Apparition'
p4512
F-0.035000000000000003
g11
tp4513
a(g4483
F0.055
g11
tp4514
a(S'Dragon Knight'
p4515
F0.058000000000000003
g11
tp4516
a(S'Visage'
p4517
F0.245
g44
tp4518
a(g4442
F0.044999999999999998
g11
tp4519
a(S'Anti-Mage'
F0.065000000000000002
g11
tp4520
a(S'Skywrath Mage'
p4521
F-0.17499999999999999
g44
tp4522
a(S'Phoenix'
p4523
F-0.111
g11
tp4524
a(g4479
F0.050000000000000003
g11
tp4525
asS'Viper'
p4526
(lp4527
(g4405
F0.021000000000000001
g11
tp4528
a(g4426
F0.087999999999999995
g11
tp4529
a(g4456
F-0.085000000000000006
g11
tp4530
asS'Storm Spirit'
p4531
(lp4532
(g4389
F0.001
g11
tp4533
a(g4405
F0.027
g11
tp4534
a(g4426
F0.034000000000000002
g11
tp4535
a(g4411
F0.023
g11
tp4536
a(g4409
F0.074999999999999997
g11
tp4537
a(S'Lina'
p4538
F0.025000000000000001
g11
tp4539
a(g4477
F-0.01
g11
tp4540
a(g4491
F0.0089999999999999993
g11
tp4541
a(g4420
F-0.0089999999999999993
g11
tp4542
a(S'Witch Doctor'
p4543
F-0.17899999999999999
g44
tp4544
a(g4422
F-0.051999999999999998
g11
tp4545
a(g4429
F0.0070000000000000001
g11
tp4546
a(g4501
F-0.0050000000000000001
g11
tp4547
a(g4395
F-0.050000000000000003
g11
tp4548
a(S'Lion'
p4549
F-0.067000000000000004
g11
tp4550
a(g4507
F-0.051999999999999998
g11
tp4551
asg4409
(lp4552
(g4414
F0.0030000000000000001
g11
tp4553
a(g4403
F-0.052999999999999999
g11
tp4554
a(S'Rubick'
p4555
F0.056000000000000001
g11
tp4556
a(g4387
F0.064000000000000001
g11
tp4557
a(g4391
F0.035000000000000003
g11
tp4558
a(g4416
F0.035000000000000003
g11
tp4559
a(g4395
F-0.058999999999999997
g11
tp4560
a(g4418
F0.044999999999999998
g11
tp4561
a(g4491
F0.056000000000000001
g11
tp4562
a(g4399
F0.13
g11
tp4563
a(S'Anti-Mage'
F0.02
g11
tp4564
a(g4456
F-0.058999999999999997
g11
tp4565
a(g4389
F-0.029999999999999999
g11
tp4566
a(g4464
F0.076999999999999999
g11
tp4567
a(g4435
F0.0040000000000000001
g11
tp4568
a(S'Naga Siren'
p4569
F0.085999999999999993
g11
tp4570
a(g4393
F0.021999999999999999
g11
tp4571
asS'Bane'
p4572
(lp4573
(g4405
F-0.0050000000000000001
g11
tp4574
a(g4424
F0.107
g11
tp4575
asg4491
(lp4576
(g4391
F-0.041000000000000002
g11
tp4577
a(g4389
F-0.024
g11
tp4578
a(g4401
F-0.021999999999999999
g11
tp4579
a(g4387
F0.001
g11
tp4580
a(g4395
F-0.0070000000000000001
g11
tp4581
a(g4393
F0.0089999999999999993
g11
tp4582
a(g4416
F0.036999999999999998
g11
tp4583
a(S'Tusk'
p4584
F0.124
g11
tp4585
a(g4414
F-0.02
g11
tp4586
a(g4418
F-0.069000000000000006
g11
tp4587
a(g4397
F0.11899999999999999
g11
tp4588
a(g4458
F0.023
g11
tp4589
a(g4464
F0.0089999999999999993
g11
tp4590
a(g4555
F-0.127
g11
tp4591
a(g4467
F0.115
g11
tp4592
asg4458
(lp4593
(g4405
F0.001
g11
tp4594
a(g4414
F0.02
g11
tp4595
a(g4395
F0.033000000000000002
g11
tp4596
a(g4426
F-0.002
g11
tp4597
a(g4391
F-0.027
g11
tp4598
a(g4397
F0.13700000000000001
g44
tp4599
a(g4456
F0.051999999999999998
g11
tp4600
a(g4403
F0.029000000000000001
g11
tp4601
a(g4416
F-0.069000000000000006
g11
tp4602
a(g4418
F0.078
g11
tp4603
a(g4389
F-0.084000000000000005
g11
tp4604
a(g4429
F0.073999999999999996
g11
tp4605
a(g4491
F-0.021999999999999999
g11
tp4606
a(g4467
F0.19900000000000001
g44
tp4607
asg4523
(lp4608
(g4387
F0.033000000000000002
g11
tp4609
a(g4389
F0.074999999999999997
g11
tp4610
a(g4391
F0.044999999999999998
g11
tp4611
asS'Crystal Maiden'
p4612
(lp4613
(g4405
F0.023
g11
tp4614
a(g4411
F-0.043999999999999997
g11
tp4615
asg4397
(lp4616
(g4426
F-0.055
g11
tp4617
a(g4389
F0.025000000000000001
g11
tp4618
a(g4393
F-0.024
g11
tp4619
a(g4510
F-0.0050000000000000001
g11
tp4620
a(g4456
F-0.040000000000000001
g11
tp4621
a(g4405
F-0.025999999999999999
g11
tp4622
a(g4507
F-0.090999999999999998
g11
tp4623
a(g4422
F0.090999999999999998
g11
tp4624
a(g4395
F0.106
g11
tp4625
a(g4391
F-0.082000000000000003
g11
tp4626
a(g4403
F0.17999999999999999
g44
tp4627
a(g4420
F-0.11899999999999999
g11
tp4628
a(g4491
F0.028000000000000001
g11
tp4629
a(g4418
F-0.0030000000000000001
g11
tp4630
a(g4385
F0.012999999999999999
g11
tp4631
a(S'Beastmaster'
p4632
F0.104
g11
tp4633
a(g4572
F0.017999999999999999
g11
tp4634
a(g4429
F-0.010999999999999999
g11
tp4635
a(g4501
F0.218
g44
tp4636
asS'Zeus'
p4637
(lp4638
(g4389
F0.13300000000000001
g11
tp4639
asg4632
(lp4640
(g4405
F0.044999999999999998
g11
tp4641
a(g4424
F0.10100000000000001
g11
tp4642
a(g4395
F-0.042000000000000003
g11
tp4643
a(g4456
F-0.17100000000000001
g11
tp4644
asS'Anti-Mage'
p4645
(lp4646
(g4538
F-0.060999999999999999
g11
tp4647
a(S'Earthshaker'
p4648
F0
g11
tp4649
a(g4409
F0.052999999999999999
g11
tp4650
a(g4477
F0.062
g11
tp4651
a(g4411
F0.036999999999999998
g11
tp4652
a(g4485
F0.036999999999999998
g11
tp4653
asg4431
(lp4654
(g4477
F0.19700000000000001
g44
tp4655
a(g4538
F-0.069000000000000006
g11
tp4656
asg4387
(lp4657
(g4426
F-0.045999999999999999
g11
tp4658
a(g4389
F0.002
g11
tp4659
a(g4393
F0.0060000000000000001
g11
tp4660
a(g4414
F-0.094
g44
tp4661
a(g4385
F0.060999999999999999
g11
tp4662
a(g4416
F0.033000000000000002
g11
tp4663
a(g4403
F0.025000000000000001
g11
tp4664
a(g4401
F-0.031
g11
tp4665
a(g4498
F0.017000000000000001
g11
tp4666
a(g4458
F0.024
g11
tp4667
a(g4433
F0.086999999999999994
g11
tp4668
a(g4391
F-0.074999999999999997
g11
tp4669
a(g4409
F0.11
g44
tp4670
a(g4456
F-0.078
g11
tp4671
a(g4395
F0.016
g11
tp4672
a(g4429
F0.027
g11
tp4673
a(g4491
F-0.021000000000000001
g11
tp4674
a(g4483
F0.039
g11
tp4675
a(g4467
F0.14199999999999999
g44
tp4676
a(g4397
F0.042999999999999997
g11
tp4677
a(g4632
F0.11700000000000001
g11
tp4678
a(g4572
F-0.025000000000000001
g11
tp4679
a(g4464
F0.044999999999999998
g11
tp4680
a(g4526
F-0.001
g11
tp4681
a(g4523
F-0.13800000000000001
g11
tp4682
a(g4510
F-0.21299999999999999
g44
tp4683
a(g4612
F0.10199999999999999
g11
tp4684
a(S'Sand King'
p4685
F-0.027
g11
tp4686
a(S'Puck'
p4687
F-0.012999999999999999
g11
tp4688
a(g4517
F0.029999999999999999
g11
tp4689
a(g4521
F-0.113
g11
tp4690
a(S'Chen'
p4691
F0.068000000000000005
g11
tp4692
a(g4507
F-0.012999999999999999
g11
tp4693
a(S'Axe'
p4694
F0.0040000000000000001
g11
tp4695
asS'Windranger'
p4696
(lp4697
(g4426
F-0.127
g11
tp4698
a(g4411
F0.063
g11
tp4699
asS'Drow Ranger'
p4700
(lp4701
(g4517
F0.092999999999999999
g11
tp4702
a(g4426
F0.033000000000000002
g11
tp4703
asg4512
(lp4704
(g4393
F0.02
g11
tp4705
a(g4426
F-0.069000000000000006
g11
tp4706
a(g4391
F-0.0060000000000000001
g11
tp4707
a(g4389
F-0.11899999999999999
g11
tp4708
asg4538
(lp4709
(g4389
F-0.025000000000000001
g11
tp4710
a(g4426
F-0.050000000000000003
g11
tp4711
a(g4405
F-0.037999999999999999
g11
tp4712
a(g4411
F-0.023
g11
tp4713
a(g4409
F0.105
g44
tp4714
a(g4395
F0.060999999999999999
g11
tp4715
a(g4418
F0.073999999999999996
g11
tp4716
a(g4420
F-0.073999999999999996
g11
tp4717
a(g4422
F0.099000000000000005
g11
tp4718
a(g4416
F0.086999999999999994
g11
tp4719
a(g4477
F0.02
g11
tp4720
a(g4485
F-0.112
g11
tp4721
a(g4491
F0.014
g11
tp4722
a(g4429
F0.052999999999999999
g11
tp4723
a(g4510
F-0.086999999999999994
g11
tp4724
a(g4501
F0.066000000000000003
g11
tp4725
a(g4645
F0.0080000000000000002
g11
tp4726
a(g4435
F-0.042000000000000003
g11
tp4727
a(g4442
F0.16800000000000001
g44
tp4728
a(g4483
F0.092999999999999999
g11
tp4729
a(g4549
F-0.115
g11
tp4730
a(g4543
F0.057000000000000002
g11
tp4731
a(g4515
F-0.074999999999999997
g11
tp4732
a(S'Slark'
p4733
F-0.092999999999999999
g11
tp4734
a(g4507
F-0.082000000000000003
g11
tp4735
a(g4517
F-0.0050000000000000001
g11
tp4736
a(g4431
F-0.089999999999999997
g11
tp4737
asS'Centaur Warrunner'
p4738
(lp4739
(g4395
F-0.010999999999999999
g11
tp4740
asg4685
(lp4741
(g4405
F0.042000000000000003
g11
tp4742
asg4420
(lp4743
(g4389
F-0.025000000000000001
g11
tp4744
a(g4405
F0.029999999999999999
g11
tp4745
a(g4426
F0.017000000000000001
g11
tp4746
a(g4414
F-0.069000000000000006
g11
tp4747
a(g4395
F0.027
g11
tp4748
a(g4391
F-0.060999999999999999
g11
tp4749
a(g4491
F0.017000000000000001
g11
tp4750
a(g4418
F-0.051999999999999998
g11
tp4751
a(g4416
F0.058000000000000003
g11
tp4752
a(g4403
F0.016
g11
tp4753
a(g4397
F0.010999999999999999
g11
tp4754
a(g4498
F-0.051999999999999998
g11
tp4755
a(g4456
F0.060999999999999999
g11
tp4756
a(g4501
F0.075999999999999998
g11
tp4757
a(g4433
F-0.058000000000000003
g11
tp4758
a(g4483
F0.18099999999999999
g44
tp4759
a(g4385
F-0.085000000000000006
g11
tp4760
asg4393
(lp4761
(g4405
F0.012
g11
tp4762
a(g4391
F-0.024
g11
tp4763
a(g4426
F-0.021000000000000001
g11
tp4764
a(g4395
F0.070999999999999994
g11
tp4765
a(g4414
F-0.072999999999999995
g11
tp4766
a(g4424
F0.050999999999999997
g11
tp4767
a(g4498
F0.02
g11
tp4768
a(g4403
F0.082000000000000003
g11
tp4769
a(g4416
F0.035000000000000003
g11
tp4770
a(g4389
F-0.029999999999999999
g11
tp4771
a(g4456
F-0.17899999999999999
g44
tp4772
a(g4491
F-0.0070000000000000001
g11
tp4773
a(g4385
F-0.0070000000000000001
g11
tp4774
a(g4521
F-0.069000000000000006
g11
tp4775
a(g4512
F-0.017999999999999999
g11
tp4776
a(g4501
F0.045999999999999999
g11
tp4777
a(g4517
F0.070999999999999994
g11
tp4778
a(g4418
F-0.063
g11
tp4779
a(g4433
F-0.051999999999999998
g11
tp4780
a(g4483
F0.083000000000000004
g11
tp4781
a(g4435
F0.021000000000000001
g11
tp4782
a(S'Anti-Mage'
F0.056000000000000001
g11
tp4783
a(g4464
F0.041000000000000002
g11
tp4784
a(g4696
F0.0089999999999999993
g11
tp4785
a(g4612
F0.041000000000000002
g11
tp4786
a(g4409
F0.073999999999999996
g11
tp4787
asg4456
(lp4788
(g4485
F-0.0070000000000000001
g11
tp4789
a(g4395
F0.034000000000000002
g11
tp4790
a(g4405
F-0.031
g11
tp4791
a(g4389
F-0.025000000000000001
g11
tp4792
a(g4411
F-0.13800000000000001
g44
tp4793
a(g4424
F0.075999999999999998
g11
tp4794
a(g4422
F0.122
g11
tp4795
a(g4418
F0.014
g11
tp4796
a(g4416
F-0.126
g11
tp4797
a(g4429
F0.10199999999999999
g11
tp4798
a(g4420
F0.047
g11
tp4799
a(g4507
F-0.019
g11
tp4800
a(g4414
F0.048000000000000001
g11
tp4801
a(g4409
F0.034000000000000002
g11
tp4802
a(S'Viper'
p4803
F-0.059999999999999998
g11
tp4804
a(S'Beastmaster'
p4805
F-0.051999999999999998
g11
tp4806
asg4733
(lp4807
(g4389
F0.055
g11
tp4808
a(g4414
F-0.066000000000000003
g11
tp4809
asg4694
(lp4810
(g4405
F0.039
g11
tp4811
asg4507
(lp4812
(g4389
F0.01
g11
tp4813
a(S'Io'
p4814
F0.104
g11
tp4815
a(g4397
F0.025999999999999999
g11
tp4816
a(g4555
F-0.016
g11
tp4817
a(g4391
F-0.13900000000000001
g11
tp4818
a(g4456
F-0.017999999999999999
g11
tp4819
a(g4395
F-0.065000000000000002
g11
tp4820
a(g4414
F-0.089999999999999997
g11
tp4821
a(g4387
F0.035000000000000003
g11
tp4822
a(g4416
F0.002
g11
tp4823
asg4521
(lp4824
(g4393
F0.069000000000000006
g11
tp4825
a(g4387
F0.031
g11
tp4826
a(g4389
F0.036999999999999998
g11
tp4827
a(g4391
F-0.045999999999999999
g11
tp4828
a(g4395
F0.031
g11
tp4829
asg4389
(lp4830
(g4440
F0.042999999999999997
g11
tp4831
a(g4405
F0.027
g11
tp4832
a(g4485
F-0.062
g11
tp4833
a(g4538
F-0.056000000000000001
g11
tp4834
a(g4531
F0.032000000000000001
g11
tp4835
a(g4426
F-0.019
g11
tp4836
a(g4420
F-0.060999999999999999
g11
tp4837
a(g4424
F0.11899999999999999
g44
tp4838
a(g4477
F0.073999999999999996
g11
tp4839
a(S'Phantom Lancer'
p4840
F0.017999999999999999
g11
tp4841
a(g4491
F-0.021000000000000001
g11
tp4842
a(g4385
F0.012
g11
tp4843
a(g4543
F-0.047
g11
tp4844
a(g4549
F0.012
g11
tp4845
a(g4411
F-0.010999999999999999
g11
tp4846
a(g4507
F-0.012999999999999999
g11
tp4847
a(S'Templar Assassin'
p4848
F0.070000000000000007
g11
tp4849
a(g4422
F-0.035999999999999997
g11
tp4850
a(g4435
F-0.17100000000000001
g44
tp4851
a(g4483
F-0.025000000000000001
g11
tp4852
a(g4512
F-0.13800000000000001
g11
tp4853
a(S'Anti-Mage'
F0.037999999999999999
g11
tp4854
a(g4523
F-0.070999999999999994
g11
tp4855
a(g4501
F0.159
g11
tp4856
a(g4637
F0.041000000000000002
g11
tp4857
a(g4409
F0.041000000000000002
g11
tp4858
a(g4733
F-0.0030000000000000001
g11
tp4859
a(g4521
F-0.082000000000000003
g11
tp4860
a(g4515
F0.028000000000000001
g11
tp4861
a(S'Razor'
p4862
F-0.055
g11
tp4863
asg4517
(lp4864
(g4700
F0.033000000000000002
g11
tp4865
a(g4393
F0.035000000000000003
g11
tp4866
a(g4555
F0.01
g11
tp4867
a(g4391
F0.20000000000000001
g44
tp4868
a(g4387
F0
g11
tp4869
a(g4395
F0.033000000000000002
g11
tp4870
a(g4414
F-0.090999999999999998
g11
tp4871
asg4435
(lp4872
(g4389
F-0.16500000000000001
g44
tp4873
a(g4414
F-0.067000000000000004
g11
tp4874
a(g4393
F0.045999999999999999
g11
tp4875
a(g4584
F0.081000000000000003
g11
tp4876
a(g4555
F0.11799999999999999
g11
tp4877
a(g4403
F0.017999999999999999
g11
tp4878
asS'Slardar'
p4879
(lp4880
(g4395
F-0.114
g11
tp4881
asg4687
(lp4882
(g4405
F0.040000000000000001
g11
tp4883
asg4440
(lp4884
(g4389
F0.021999999999999999
g11
tp4885
a(g4426
F0.021000000000000001
g11
tp4886
a(g4411
F0.069000000000000006
g11
tp4887
a(g4477
F-0.047
g11
tp4888
a(g4538
F0.0089999999999999993
g11
tp4889
a(g4543
F-0.0089999999999999993
g11
tp4890
a(g4549
F0.012
g11
tp4891
a(g4420
F-0.029999999999999999
g11
tp4892
a(g4405
F0.02
g11
tp4893
a(g4491
F-0.025000000000000001
g11
tp4894
a(g4422
F0.059999999999999998
g11
tp4895
a(g4485
F-0.070000000000000007
g11
tp4896
a(g4409
F-0.0089999999999999993
g11
tp4897
a(g4424
F0.17899999999999999
g44
tp4898
a(g4840
F0.127
g11
tp4899
a(g4385
F-0.043999999999999997
g11
tp4900
a(g4510
F-0.033000000000000002
g11
tp4901
a(g4507
F-0.109
g11
tp4902
a(g4805
F0.034000000000000002
g11
tp4903
a(g4501
F0.079000000000000001
g11
tp4904
a(g4517
F0.067000000000000004
g11
tp4905
a(g4531
F-0.040000000000000001
g11
tp4906
a(g4521
F-0.109
g11
tp4907
a(g4879
F-0.109
g11
tp4908
a(g4437
F0.191
g44
tp4909
a(g4738
F-0.042000000000000003
g11
tp4910
asg4464
(lp4911
(g4405
F-0.034000000000000002
g11
tp4912
a(g4389
F-0.034000000000000002
g11
tp4913
a(g4491
F-0.091999999999999998
g11
tp4914
a(g4429
F0.14299999999999999
g11
tp4915
a(g4409
F0.043999999999999997
g11
tp4916
a(g4411
F-0.043999999999999997
g11
tp4917
asg4501
(lp4918
(g4391
F0.021999999999999999
g11
tp4919
a(g4405
F0.053999999999999999
g11
tp4920
a(g4393
F-0.048000000000000001
g11
tp4921
a(g4414
F-0.078
g11
tp4922
a(g4498
F0.0089999999999999993
g11
tp4923
a(g4416
F-0.086999999999999994
g11
tp4924
a(g4401
F-0.072999999999999995
g11
tp4925
a(g4418
F-0.058000000000000003
g11
tp4926
a(g4397
F0.19900000000000001
g44
tp4927
a(g4389
F0.045999999999999999
g11
tp4928
a(g4395
F-0.012999999999999999
g11
tp4929
a(g4422
F0.13400000000000001
g11
tp4930
a(g4491
F0.0050000000000000001
g11
tp4931
a(g4429
F-0.02
g11
tp4932
a(g4426
F-0.052999999999999999
g11
tp4933
asg4510
(lp4934
(g4397
F0.14000000000000001
g44
tp4935
a(g4414
F-0.067000000000000004
g11
tp4936
a(g4395
F0.039
g11
tp4937
a(g4391
F-0.021999999999999999
g11
tp4938
a(g4387
F-0.13700000000000001
g11
tp4939
asg4498
(lp4940
(g4405
F0.055
g11
tp4941
a(g4411
F0.051999999999999998
g11
tp4942
a(g4395
F0.045999999999999999
g11
tp4943
a(g4485
F0.053999999999999999
g11
tp4944
a(g4389
F0.025000000000000001
g11
tp4945
a(g4501
F0.13500000000000001
g11
tp4946
a(g4420
F-0.074999999999999997
g11
tp4947
a(g4414
F-0.13300000000000001
g11
tp4948
a(g4418
F-0.036999999999999998
g11
tp4949
a(g4416
F-0.023
g11
tp4950
a(g4483
F-0.108
g11
tp4951
asg4483
(lp4952
(g4481
F-0.069000000000000006
g11
tp4953
a(g4387
F0.041000000000000002
g11
tp4954
a(g4507
F0.058000000000000003
g11
tp4955
a(g4389
F-0.048000000000000001
g11
tp4956
a(g4414
F0.039
g11
tp4957
a(g4393
F0.079000000000000001
g11
tp4958
a(g4391
F0.042000000000000003
g11
tp4959
a(g4555
F0.094
g11
tp4960
a(g4498
F-0.14399999999999999
g11
tp4961
a(g4401
F0.122
g11
tp4962
asg4691
(lp4963
(g4405
F0.031
g11
tp4964
a(g4391
F-0.002
g11
tp4965
a(g4433
F0.11700000000000001
g11
tp4966
asg4426
(lp4967
(g4387
F-0.025999999999999999
g11
tp4968
a(g4391
F-0.041000000000000002
g11
tp4969
a(g4414
F-0.085999999999999993
g44
tp4970
a(g4395
F0.036999999999999998
g11
tp4971
a(g4393
F-0.0070000000000000001
g11
tp4972
a(g4389
F-0.024
g11
tp4973
a(g4397
F0.034000000000000002
g11
tp4974
a(g4401
F-0.024
g11
tp4975
a(g4409
F0.122
g44
tp4976
a(g4416
F0.059999999999999998
g11
tp4977
a(g4458
F0.041000000000000002
g11
tp4978
a(g4433
F0.053999999999999999
g11
tp4979
a(g4507
F-0.043999999999999997
g11
tp4980
a(g4418
F0.124
g11
tp4981
a(S'Ancient Apparition'
p4982
F-0.092999999999999999
g11
tp4983
a(g4696
F-0.16700000000000001
g44
tp4984
a(g4403
F0.107
g11
tp4985
a(g4483
F0.112
g11
tp4986
a(g4526
F0.085999999999999993
g11
tp4987
a(g4517
F0.059999999999999998
g11
tp4988
a(g4437
F0.048000000000000001
g11
tp4989
a(g4399
F-0.049000000000000002
g11
tp4990
a(g4491
F-0.129
g11
tp4991
a(g4467
F0.055
g11
tp4992
a(g4447
F-0.106
g11
tp4993
a(g4700
F0.023
g11
tp4994
a(g4435
F0.107
g11
tp4995
asg4418
(lp4996
(g4538
F0.025000000000000001
g11
tp4997
a(g4389
F0
g11
tp4998
a(g4485
F0.0080000000000000002
g11
tp4999
a(g4477
F0.0030000000000000001
g11
tp5000
a(g4409
F0.098000000000000004
g11
tp5001
a(g4420
F-0.106
g11
tp5002
a(g4543
F-0.025999999999999999
g11
tp5003
a(g4426
F0.111
g11
tp5004
a(g4491
F-0.084000000000000005
g11
tp5005
a(g4411
F-0.062
g11
tp5006
a(g4422
F0.108
g11
tp5007
a(g4395
F0.13
g11
tp5008
a(g4424
F0.072999999999999995
g11
tp5009
a(g4501
F0.036999999999999998
g11
tp5010
a(g4549
F-0.068000000000000005
g11
tp5011
assI685
g2
(g3
tRp5012
S'Ogre Magi'
p5013
(lp5014
(S'Queen of Pain'
p5015
F-0.017999999999999999
g11
tp5016
asS'Disruptor'
p5017
(lp5018
(S'Tusk'
p5019
F0.052999999999999999
g11
tp5020
a(S'Gyrocopter'
p5021
F-0.043999999999999997
g11
tp5022
a(g5015
F-0.070999999999999994
g11
tp5023
a(S'Shadow Fiend'
p5024
F0.13200000000000001
g44
tp5025
a(S'Ember Spirit'
p5026
F0.044999999999999998
g11
tp5027
a(S'Slardar'
p5028
F-0.034000000000000002
g11
tp5029
a(S'Dark Seer'
p5030
F-0.063
g11
tp5031
a(S'Windranger'
p5032
F-0.122
g11
tp5033
a(S'Night Stalker'
p5034
F0.056000000000000001
g11
tp5035
a(S'Juggernaut'
p5036
F0.060999999999999999
g11
tp5037
a(S'Doom'
p5038
F0.062
g11
tp5039
a(S'Undying'
p5040
F0.032000000000000001
g11
tp5041
a(S'Winter Wyvern'
p5042
F-0.012
g11
tp5043
a(S'Spirit Breaker'
p5044
F-0.224
g44
tp5045
asS'Dazzle'
p5046
(lp5047
(g5019
F0.024
g11
tp5048
a(g5024
F0.065000000000000002
g11
tp5049
a(g5015
F-0.0030000000000000001
g11
tp5050
a(g5028
F0.043999999999999997
g11
tp5051
a(S'Gyrocopter'
p5052
F-0.044999999999999998
g11
tp5053
a(g5026
F-0.081000000000000003
g11
tp5054
a(S'Earthshaker'
p5055
F0.035000000000000003
g11
tp5056
a(S'Dark Seer'
p5057
F0.028000000000000001
g11
tp5058
a(S'Night Stalker'
p5059
F-0.024
g11
tp5060
a(g5032
F-0.066000000000000003
g11
tp5061
a(S'Bane'
p5062
F0.055
g11
tp5063
a(S'Spirit Breaker'
p5064
F-0.017000000000000001
g11
tp5065
a(S'Templar Assassin'
p5066
F0.028000000000000001
g11
tp5067
a(S'Clockwerk'
p5068
F-0.032000000000000001
g11
tp5069
a(S'Lina'
p5070
F-0.024
g11
tp5071
a(g5036
F0.036999999999999998
g11
tp5072
a(S'Beastmaster'
p5073
F0.0030000000000000001
g11
tp5074
a(S'Huskar'
p5075
F0.124
g11
tp5076
a(S'Alchemist'
p5077
F0.0040000000000000001
g11
tp5078
a(S'Phantom Lancer'
p5079
F0.042000000000000003
g11
tp5080
a(S'Undying'
p5081
F0.052999999999999999
g11
tp5082
a(g5042
F0.017999999999999999
g11
tp5083
a(S'Broodmother'
p5084
F-0.082000000000000003
g11
tp5085
a(S'Doom'
p5086
F0.095000000000000001
g11
tp5087
a(S'Rubick'
p5088
F-0.049000000000000002
g11
tp5089
a(S'Tiny'
p5090
F0.066000000000000003
g11
tp5091
a(S'Anti-Mage'
F-0.024
g11
tp5092
a(S'Razor'
p5093
F-0.024
g11
tp5094
asg5059
(lp5095
(g5015
F-0.066000000000000003
g11
tp5096
a(g5024
F0.159
g44
tp5097
a(g5042
F-0.025000000000000001
g11
tp5098
a(g5046
F-0.0080000000000000002
g11
tp5099
a(g5026
F0.059999999999999998
g11
tp5100
a(g5062
F0.107
g11
tp5101
a(g5030
F0.012999999999999999
g11
tp5102
a(g5052
F0
g11
tp5103
a(g5019
F0.034000000000000002
g11
tp5104
a(g5032
F-0.082000000000000003
g11
tp5105
a(S'Disruptor'
p5106
F0.044999999999999998
g11
tp5107
a(g5028
F-0.066000000000000003
g11
tp5108
a(S'Ancient Apparition'
p5109
F-0.113
g11
tp5110
a(g5081
F0.097000000000000003
g11
tp5111
a(g5036
F-0.021999999999999999
g11
tp5112
a(g5070
F-0.19400000000000001
g44
tp5113
a(g5090
F-0.021999999999999999
g11
tp5114
asg5093
(lp5115
(g5019
F-0.035000000000000003
g11
tp5116
a(g5042
F0.039
g11
tp5117
a(S'Slardar'
p5118
F0.074999999999999997
g11
tp5119
a(S'Dazzle'
p5120
F0.016
g11
tp5121
asg5040
(lp5122
(g5019
F-0.02
g11
tp5123
a(g5015
F-0.024
g11
tp5124
a(g5021
F-0.001
g11
tp5125
a(g5024
F0.055
g11
tp5126
a(g5026
F-0.027
g11
tp5127
a(g5046
F0.042000000000000003
g11
tp5128
a(g5062
F0.023
g11
tp5129
a(g5042
F0.060999999999999999
g11
tp5130
a(S'Alchemist'
p5131
F-0.024
g11
tp5132
a(g5032
F-0.10299999999999999
g11
tp5133
a(g5070
F-0.10299999999999999
g11
tp5134
a(g5028
F0.11600000000000001
g11
tp5135
a(g5044
F-0.072999999999999995
g11
tp5136
a(g5034
F0.070000000000000007
g11
tp5137
a(g5036
F0.059999999999999998
g11
tp5138
a(g5106
F-0.0060000000000000001
g11
tp5139
a(g5066
F0.13200000000000001
g11
tp5140
asg5090
(lp5141
(S'Io'
p5142
F0.079000000000000001
g11
tp5143
a(g5062
F0.014
g11
tp5144
a(g5042
F-0.042000000000000003
g11
tp5145
a(g5118
F-0.002
g11
tp5146
a(S'Queen of Pain'
p5147
F-0.20799999999999999
g44
tp5148
a(g5019
F-0.050999999999999997
g11
tp5149
a(g5120
F0.028000000000000001
g11
tp5150
a(g5057
F0.086999999999999994
g11
tp5151
a(g5059
F-0.075999999999999998
g11
tp5152
a(S'Lich'
p5153
F-0.0030000000000000001
g11
tp5154
asS'Wraith King'
p5155
(lp5156
(g5109
F0.0030000000000000001
g11
tp5157
a(g5024
F0.104
g11
tp5158
asg5024
(lp5159
(g5120
F0.017999999999999999
g11
tp5160
a(g5042
F0.0070000000000000001
g11
tp5161
a(g5019
F0.02
g11
tp5162
a(g5062
F0.029000000000000001
g11
tp5163
a(g5055
F0
g11
tp5164
a(g5059
F0.096000000000000002
g11
tp5165
a(g5064
F-0.014999999999999999
g11
tp5166
a(g5057
F0.0089999999999999993
g11
tp5167
a(g5118
F-0.096000000000000002
g11
tp5168
a(g5026
F-0.001
g11
tp5169
a(g5088
F-0.070999999999999994
g11
tp5170
a(g5068
F-0.0089999999999999993
g11
tp5171
a(g5106
F0.058000000000000003
g11
tp5172
a(g5081
F0.019
g11
tp5173
a(g5036
F0.0030000000000000001
g11
tp5174
a(g5109
F0.0050000000000000001
g11
tp5175
a(g5052
F0.043999999999999997
g11
tp5176
a(S'Witch Doctor'
p5177
F-0.114
g11
tp5178
a(S'Beastmaster'
p5179
F0.096000000000000002
g11
tp5180
a(g5147
F0.014
g11
tp5181
a(S'Wraith King'
p5182
F0.019
g11
tp5183
a(S'Vengeful Spirit'
p5184
F0.070000000000000007
g11
tp5185
a(S'Phantom Lancer'
p5186
F-0.0030000000000000001
g11
tp5187
a(g5086
F0.096000000000000002
g11
tp5188
a(S'Lina'
p5189
F0.012
g11
tp5190
a(g5153
F-0.014999999999999999
g11
tp5191
asS'Viper'
p5192
(lp5193
(g5019
F0.001
g11
tp5194
a(g5028
F0.121
g11
tp5195
asg5036
(lp5196
(g5042
F-0.080000000000000002
g11
tp5197
a(g5019
F0.012999999999999999
g11
tp5198
a(g5147
F0.027
g11
tp5199
a(S'Shadow Fiend'
p5200
F0.069000000000000006
g11
tp5201
a(g5120
F0.056000000000000001
g11
tp5202
a(g5062
F-0.053999999999999999
g11
tp5203
a(g5106
F0.052999999999999999
g11
tp5204
a(g5118
F0.021000000000000001
g11
tp5205
a(g5059
F-0.019
g11
tp5206
a(g5081
F0.089999999999999997
g11
tp5207
a(g5055
F0.30599999999999999
g44
tp5208
a(g5057
F0.050999999999999997
g11
tp5209
asg5019
(lp5210
(g5015
F-0.024
g11
tp5211
a(g5046
F0.039
g11
tp5212
a(g5021
F0.087999999999999995
g44
tp5213
a(g5042
F-0.0060000000000000001
g11
tp5214
a(g5026
F-0.070999999999999994
g11
tp5215
a(g5070
F-0.089999999999999997
g44
tp5216
a(g5024
F0.082000000000000003
g11
tp5217
a(g5032
F-0.091999999999999998
g44
tp5218
a(g5040
F0.0060000000000000001
g11
tp5219
a(g5062
F0.043999999999999997
g11
tp5220
a(S'Ancient Apparition'
p5221
F-0.035999999999999997
g11
tp5222
a(g5036
F0.0089999999999999993
g11
tp5223
a(g5017
F0.041000000000000002
g11
tp5224
a(g5028
F0.017000000000000001
g11
tp5225
a(g5131
F0.027
g11
tp5226
a(g5093
F-0.059999999999999998
g11
tp5227
a(S'Witch Doctor'
p5228
F-0.0089999999999999993
g11
tp5229
a(g5066
F0.109
g11
tp5230
a(g5030
F0.081000000000000003
g11
tp5231
a(g5192
F0.047
g11
tp5232
a(S'Rubick'
p5233
F-0.056000000000000001
g11
tp5234
a(g5055
F0.099000000000000005
g11
tp5235
a(S'Clockwerk'
p5236
F0.02
g11
tp5237
a(S'Invoker'
p5238
F-0.059999999999999998
g11
tp5239
a(g5044
F-0.0089999999999999993
g11
tp5240
a(g5034
F0.033000000000000002
g11
tp5241
a(g5038
F0.108
g11
tp5242
a(g5079
F-0.0089999999999999993
g11
tp5243
a(g5090
F0.002
g11
tp5244
a(S'Anti-Mage'
p5245
F-0.094
g11
tp5246
a(g5073
F0.090999999999999998
g11
tp5247
a(S'Lich'
p5248
F0.081000000000000003
g11
tp5249
a(S'Bounty Hunter'
p5250
F-0.0089999999999999993
g11
tp5251
asg5021
(lp5252
(g5019
F0.106
g44
tp5253
a(g5042
F0.012999999999999999
g11
tp5254
a(g5046
F-0.012
g11
tp5255
a(g5028
F0.074999999999999997
g11
tp5256
a(g5015
F0.031
g11
tp5257
a(g5030
F-0.106
g44
tp5258
a(g5062
F0.014
g11
tp5259
a(g5055
F0.062
g11
tp5260
a(g5106
F-0.037999999999999999
g11
tp5261
a(g5081
F0.042999999999999997
g11
tp5262
a(g5236
F-0.073999999999999996
g11
tp5263
a(g5088
F-0.034000000000000002
g11
tp5264
a(g5044
F-0.02
g11
tp5265
a(g5070
F-0.085000000000000006
g11
tp5266
a(g5034
F0.017000000000000001
g11
tp5267
a(g5032
F-0.087999999999999995
g11
tp5268
a(g5066
F0.017000000000000001
g11
tp5269
a(g5024
F0.124
g11
tp5270
a(g5221
F0.080000000000000002
g11
tp5271
a(g5077
F-0.024
g11
tp5272
a(g5142
F-0.085999999999999993
g11
tp5273
a(g5248
F0.053999999999999999
g11
tp5274
asg5042
(lp5275
(g5015
F-0.010999999999999999
g11
tp5276
a(S'Tusk'
p5277
F0.0089999999999999993
g11
tp5278
a(g5030
F-0.023
g11
tp5279
a(g5021
F0.01
g11
tp5280
a(g5024
F0.084000000000000005
g44
tp5281
a(g5028
F0.058000000000000003
g11
tp5282
a(S'Ember Spirit'
p5283
F0.021000000000000001
g11
tp5284
a(g5034
F-0.010999999999999999
g11
tp5285
a(g5055
F0.127
g44
tp5286
a(g5036
F-0.069000000000000006
g11
tp5287
a(g5032
F-0.106
g44
tp5288
a(g5044
F-0.014
g11
tp5289
a(g5236
F-0.048000000000000001
g11
tp5290
a(g5062
F-0.074999999999999997
g11
tp5291
a(g5038
F0.096000000000000002
g11
tp5292
a(g5066
F0.106
g11
tp5293
a(g5070
F-0.063
g11
tp5294
a(g5040
F0.10199999999999999
g11
tp5295
a(g5131
F-0.034000000000000002
g11
tp5296
a(g5090
F0.025999999999999999
g11
tp5297
a(g5046
F0.048000000000000001
g11
tp5298
a(g5093
F0.029000000000000001
g11
tp5299
a(g5233
F-0.11899999999999999
g11
tp5300
a(g5221
F0.056000000000000001
g11
tp5301
a(g5073
F-0.0080000000000000002
g11
tp5302
a(g5250
F0.155
g44
tp5303
a(g5079
F0.034000000000000002
g11
tp5304
a(g5017
F-0.0089999999999999993
g11
tp5305
asg5064
(lp5306
(g5030
F0.036999999999999998
g11
tp5307
a(g5015
F-0.085999999999999993
g11
tp5308
a(g5024
F0.073999999999999996
g11
tp5309
a(g5042
F-0.002
g11
tp5310
a(g5046
F0.025000000000000001
g11
tp5311
a(g5052
F-0.010999999999999999
g11
tp5312
a(g5026
F-0.113
g11
tp5313
a(g5070
F-0.048000000000000001
g11
tp5314
a(g5019
F0.017999999999999999
g11
tp5315
a(g5081
F-0.02
g11
tp5316
a(g5062
F0.017999999999999999
g11
tp5317
a(g5066
F0.0040000000000000001
g11
tp5318
a(g5221
F0.032000000000000001
g11
tp5319
a(g5106
F-0.20899999999999999
g44
tp5320
asg5073
(lp5321
(g5120
F-0.037999999999999999
g11
tp5322
a(g5024
F0.10199999999999999
g11
tp5323
a(g5019
F0.035000000000000003
g11
tp5324
a(g5147
F-0.027
g11
tp5325
a(g5042
F-0.079000000000000001
g11
tp5326
asS'Lion'
p5327
(lp5328
(g5057
F0
g11
tp5329
asg5062
(lp5330
(g5147
F-0.083000000000000004
g11
tp5331
a(g5118
F0.01
g11
tp5332
a(g5200
F0.053999999999999999
g11
tp5333
a(S'Tiny'
p5334
F0.029999999999999999
g11
tp5335
a(g5019
F0.0070000000000000001
g11
tp5336
a(g5026
F-0.045999999999999999
g11
tp5337
a(g5052
F-0.041000000000000002
g11
tp5338
a(g5059
F0.069000000000000006
g11
tp5339
a(g5120
F0.033000000000000002
g11
tp5340
a(g5057
F0.025000000000000001
g11
tp5341
a(g5042
F-0.127
g44
tp5342
a(g5081
F0.012
g11
tp5343
a(S'Juggernaut'
p5344
F-0.095000000000000001
g11
tp5345
a(g5086
F0.159
g44
tp5346
a(g5189
F0.002
g11
tp5347
a(g5077
F-0.121
g11
tp5348
a(g5142
F0.14599999999999999
g11
tp5349
a(S'Invoker'
p5350
F-0.071999999999999995
g11
tp5351
a(g5064
F-0.045999999999999999
g11
tp5352
a(g5109
F0.121
g11
tp5353
a(g5068
F0.01
g11
tp5354
a(S'Windranger'
p5355
F-0.059999999999999998
g11
tp5356
a(S'Earthshaker'
p5357
F0.025000000000000001
g11
tp5358
asg5032
(lp5359
(g5118
F0.029000000000000001
g11
tp5360
a(g5019
F0.0040000000000000001
g11
tp5361
a(g5042
F-0.025000000000000001
g11
tp5362
a(g5120
F0.044999999999999998
g11
tp5363
a(g5052
F-0.01
g11
tp5364
a(g5057
F0.035000000000000003
g11
tp5365
a(g5026
F0.17499999999999999
g44
tp5366
a(g5106
F-0.037999999999999999
g11
tp5367
a(g5059
F0.012999999999999999
g11
tp5368
a(g5081
F0.019
g11
tp5369
a(g5109
F-0.041000000000000002
g11
tp5370
a(g5055
F-0.017999999999999999
g11
tp5371
a(g5086
F0.045999999999999999
g11
tp5372
a(g5062
F0.072999999999999995
g11
tp5373
asg5084
(lp5374
(g5046
F-0.014
g11
tp5375
a(g5015
F0.029000000000000001
g11
tp5376
asg5221
(lp5377
(g5019
F-0.032000000000000001
g11
tp5378
a(g5026
F-0.050000000000000003
g11
tp5379
a(g5028
F-0.012999999999999999
g11
tp5380
a(g5024
F0.070999999999999994
g11
tp5381
a(g5030
F0.036999999999999998
g11
tp5382
a(g5015
F0.02
g11
tp5383
a(g5052
F0.066000000000000003
g11
tp5384
a(g5155
F-0.016
g11
tp5385
a(g5032
F-0.13300000000000001
g11
tp5386
a(g5042
F0.044999999999999998
g11
tp5387
a(g5055
F0.058999999999999997
g11
tp5388
a(g5034
F-0.11
g11
tp5389
a(g5062
F0.16200000000000001
g44
tp5390
a(g5064
F0.0089999999999999993
g11
tp5391
asg5075
(lp5392
(g5046
F0.060999999999999999
g11
tp5393
asg5086
(lp5394
(g5248
F0.035999999999999997
g11
tp5395
a(g5042
F-0.014999999999999999
g11
tp5396
a(g5015
F0.021999999999999999
g11
tp5397
a(g5019
F0.012
g11
tp5398
a(g5062
F0.10000000000000001
g11
tp5399
a(g5046
F0.014
g11
tp5400
a(g5026
F-0.01
g11
tp5401
a(g5032
F-0.14599999999999999
g11
tp5402
a(g5024
F0.062
g11
tp5403
a(g5106
F-0.045999999999999999
g11
tp5404
asg5184
(lp5405
(g5024
F0.044999999999999998
g11
tp5406
asg5070
(lp5407
(g5019
F-0.029999999999999999
g11
tp5408
a(g5052
F-0.042999999999999997
g11
tp5409
a(g5120
F0.050999999999999997
g11
tp5410
a(g5042
F-0.017999999999999999
g11
tp5411
a(g5118
F0.122
g11
tp5412
a(g5055
F-0.13400000000000001
g44
tp5413
a(g5026
F-0.034000000000000002
g11
tp5414
a(g5064
F-0.014999999999999999
g11
tp5415
a(g5057
F-0.084000000000000005
g11
tp5416
a(g5147
F-0.032000000000000001
g11
tp5417
a(g5081
F-0.017000000000000001
g11
tp5418
a(g5062
F0.099000000000000005
g11
tp5419
a(g5024
F0.13400000000000001
g11
tp5420
a(g5059
F-0.13500000000000001
g11
tp5421
asg5030
(lp5422
(g5042
F-0.014
g11
tp5423
a(g5026
F0.050999999999999997
g11
tp5424
a(g5064
F0.034000000000000002
g11
tp5425
a(g5015
F-0.0050000000000000001
g11
tp5426
a(g5052
F-0.10000000000000001
g44
tp5427
a(g5024
F0.095000000000000001
g11
tp5428
a(g5046
F0.067000000000000004
g11
tp5429
a(g5059
F0.035999999999999997
g11
tp5430
a(g5062
F0.085999999999999993
g11
tp5431
a(g5019
F0.105
g11
tp5432
a(g5066
F-0.002
g11
tp5433
a(g5109
F0.057000000000000002
g11
tp5434
a(g5032
F-0.036999999999999998
g11
tp5435
a(g5106
F-0.050999999999999997
g11
tp5436
a(g5070
F-0.12
g11
tp5437
a(g5088
F-0.115
g11
tp5438
a(g5077
F-0.152
g44
tp5439
a(g5028
F0.17399999999999999
g44
tp5440
a(g5055
F-0.049000000000000002
g11
tp5441
a(S'Bounty Hunter'
p5442
F-0.037999999999999999
g11
tp5443
a(g5090
F0.16400000000000001
g44
tp5444
a(g5327
F-0.096000000000000002
g11
tp5445
a(g5036
F0.070999999999999994
g11
tp5446
a(g5079
F-0.043999999999999997
g11
tp5447
asg5077
(lp5448
(g5015
F-0.078
g11
tp5449
a(g5019
F0.075999999999999998
g11
tp5450
a(g5046
F0.068000000000000005
g11
tp5451
a(g5042
F0
g11
tp5452
a(g5081
F0.050999999999999997
g11
tp5453
a(g5021
F0.0070000000000000001
g11
tp5454
a(g5030
F-0.127
g11
tp5455
a(g5062
F-0.035000000000000003
g11
tp5456
a(g5028
F0.025999999999999999
g11
tp5457
a(g5088
F0.040000000000000001
g11
tp5458
asg5068
(lp5459
(g5024
F0.079000000000000001
g11
tp5460
a(g5052
F-0.066000000000000003
g11
tp5461
a(g5015
F-0.045999999999999999
g11
tp5462
a(g5042
F-0.036999999999999998
g11
tp5463
a(g5046
F0.0089999999999999993
g11
tp5464
a(g5019
F0.045999999999999999
g11
tp5465
a(g5026
F0.027
g11
tp5466
a(g5062
F0.072999999999999995
g11
tp5467
a(g5088
F-0.058999999999999997
g11
tp5468
asg5228
(lp5469
(g5019
F0.10000000000000001
g11
tp5470
a(g5147
F-0.098000000000000004
g11
tp5471
a(g5024
F0.057000000000000002
g11
tp5472
asg5153
(lp5473
(g5028
F-0.0030000000000000001
g11
tp5474
a(g5086
F0.076999999999999999
g11
tp5475
a(g5147
F-0.20200000000000001
g44
tp5476
a(g5026
F0.044999999999999998
g11
tp5477
a(g5019
F0.025999999999999999
g11
tp5478
a(g5024
F-0.0080000000000000002
g11
tp5479
a(g5090
F-0.0050000000000000001
g11
tp5480
a(g5052
F-0.019
g11
tp5481
asg5055
(lp5482
(g5147
F0.029999999999999999
g11
tp5483
a(g5200
F0.043999999999999997
g11
tp5484
a(g5120
F0.032000000000000001
g11
tp5485
a(g5042
F0.094
g11
tp5486
a(g5052
F0.025999999999999999
g11
tp5487
a(g5189
F-0.21199999999999999
g44
tp5488
a(g5019
F0.081000000000000003
g11
tp5489
a(g5026
F-0.19400000000000001
g44
tp5490
a(g5118
F0.041000000000000002
g11
tp5491
a(g5057
F-0.090999999999999998
g11
tp5492
a(g5109
F0.036999999999999998
g11
tp5493
a(g5355
F-0.13200000000000001
g11
tp5494
a(g5344
F0.28399999999999997
g44
tp5495
a(g5062
F0.043999999999999997
g11
tp5496
asg5026
(lp5497
(g5277
F-0.042000000000000003
g11
tp5498
a(g5030
F0.056000000000000001
g11
tp5499
a(g5046
F-0.036999999999999998
g11
tp5500
a(g5042
F0.035000000000000003
g11
tp5501
a(g5062
F0.02
g11
tp5502
a(g5034
F0.087999999999999995
g11
tp5503
a(g5024
F0.089999999999999997
g11
tp5504
a(g5221
F-0.025000000000000001
g11
tp5505
a(g5015
F-0.071999999999999995
g11
tp5506
a(g5044
F-0.111
g11
tp5507
a(g5028
F-0.067000000000000004
g11
tp5508
a(g5040
F0.028000000000000001
g11
tp5509
a(g5017
F0.062
g11
tp5510
a(g5233
F-0.086999999999999994
g11
tp5511
a(g5070
F-0.065000000000000002
g11
tp5512
a(g5032
F0.108
g11
tp5513
a(g5236
F0.029999999999999999
g11
tp5514
a(g5055
F-0.14699999999999999
g44
tp5515
a(g5248
F0.129
g11
tp5516
a(g5038
F0.115
g11
tp5517
a(g5066
F-0.0080000000000000002
g11
tp5518
a(S'Io'
p5519
F-0.073999999999999996
g11
tp5520
asg5028
(lp5521
(g5120
F0.041000000000000002
g11
tp5522
a(g5147
F-0.074999999999999997
g11
tp5523
a(g5062
F0.029000000000000001
g11
tp5524
a(g5042
F0.025000000000000001
g11
tp5525
a(g5032
F-0.085000000000000006
g11
tp5526
a(g5052
F0.039
g11
tp5527
a(g5024
F-0.051999999999999998
g11
tp5528
a(g5019
F-0.001
g11
tp5529
a(g5153
F0.034000000000000002
g11
tp5530
a(g5026
F-0.114
g11
tp5531
a(g5109
F-0.035000000000000003
g11
tp5532
a(g5070
F0.043999999999999997
g11
tp5533
a(g5106
F-0.064000000000000001
g11
tp5534
a(g5090
F0.033000000000000002
g11
tp5535
a(S'Templar Assassin'
p5536
F0.012999999999999999
g11
tp5537
a(g5088
F-0.080000000000000002
g11
tp5538
a(g5055
F0.041000000000000002
g11
tp5539
a(g5081
F0.124
g11
tp5540
a(g5059
F-0.085000000000000006
g11
tp5541
a(g5057
F0.13200000000000001
g11
tp5542
a(g5036
F-0.001
g11
tp5543
a(S'Viper'
p5544
F0.14899999999999999
g11
tp5545
a(g5077
F-0.041000000000000002
g11
tp5546
a(g5093
F0.032000000000000001
g11
tp5547
asg5015
(lp5548
(g5019
F0.017000000000000001
g11
tp5549
a(g5042
F0.014999999999999999
g11
tp5550
a(g5120
F0.052999999999999999
g11
tp5551
a(g5055
F0.088999999999999996
g44
tp5552
a(g5028
F-0.016
g11
tp5553
a(g5059
F-0.025999999999999999
g11
tp5554
a(g5062
F-0.0050000000000000001
g11
tp5555
a(g5064
F-0.071999999999999995
g11
tp5556
a(g5057
F0.012
g11
tp5557
a(g5052
F0.053999999999999999
g11
tp5558
a(g5081
F0.042999999999999997
g11
tp5559
a(g5077
F-0.085999999999999993
g11
tp5560
a(g5068
F-0.031
g11
tp5561
a(g5026
F-0.059999999999999998
g11
tp5562
a(g5106
F-0.042000000000000003
g11
tp5563
a(g5228
F-0.16600000000000001
g44
tp5564
a(g5036
F0.064000000000000001
g11
tp5565
a(g5086
F0.159
g44
tp5566
a(g5109
F0.057000000000000002
g11
tp5567
a(g5088
F-0.002
g11
tp5568
a(g5442
F0.001
g11
tp5569
a(g5070
F-0.050999999999999997
g11
tp5570
a(g5090
F-0.114
g11
tp5571
a(g5248
F-0.106
g11
tp5572
a(g5024
F0.11700000000000001
g11
tp5573
a(g5536
F0.032000000000000001
g11
tp5574
a(g5079
F-0.11799999999999999
g11
tp5575
a(g5073
F0.070000000000000007
g11
tp5576
a(g5084
F0.017000000000000001
g11
tp5577
a(g5013
F-0.043999999999999997
g11
tp5578
a(g5142
F0.126
g11
tp5579
asg5066
(lp5580
(g5019
F0.106
g11
tp5581
a(g5120
F0.040000000000000001
g11
tp5582
a(g5057
F-0.029000000000000001
g11
tp5583
a(g5042
F0.087999999999999995
g11
tp5584
a(g5052
F-0.0040000000000000001
g11
tp5585
a(g5028
F0.028000000000000001
g11
tp5586
a(g5015
F-0.012
g11
tp5587
a(g5026
F-0.040000000000000001
g11
tp5588
a(g5064
F-0.025999999999999999
g11
tp5589
a(g5081
F0.155
g11
tp5590
asg5442
(lp5591
(g5015
F-0.065000000000000002
g11
tp5592
a(g5030
F-0.086999999999999994
g11
tp5593
a(g5042
F0.115
g11
tp5594
a(g5019
F-0.034000000000000002
g11
tp5595
asg5245
(lp5596
(g5019
F-0.029999999999999999
g11
tp5597
a(g5120
F0.055
g11
tp5598
asg5142
(lp5599
(g5090
F0.070000000000000007
g11
tp5600
a(g5021
F-0.16600000000000001
g44
tp5601
a(g5062
F0.121
g11
tp5602
a(g5015
F0.023
g11
tp5603
a(g5026
F-0.16500000000000001
g11
tp5604
asg5088
(lp5605
(g5024
F0.058999999999999997
g11
tp5606
a(g5021
F0.016
g11
tp5607
a(g5015
F0.025000000000000001
g11
tp5608
a(g5026
F-0.048000000000000001
g11
tp5609
a(g5019
F0.012
g11
tp5610
a(g5028
F0.0060000000000000001
g11
tp5611
a(g5030
F-0.070999999999999994
g11
tp5612
a(g5046
F0.034000000000000002
g11
tp5613
a(g5042
F-0.066000000000000003
g11
tp5614
a(g5131
F0.058999999999999997
g11
tp5615
a(g5236
F-0.017000000000000001
g11
tp5616
asg5079
(lp5617
(g5120
F0.092999999999999999
g11
tp5618
a(g5019
F0.027
g11
tp5619
a(g5147
F-0.123
g11
tp5620
a(g5024
F0.095000000000000001
g11
tp5621
a(g5042
F0.055
g11
tp5622
a(g5057
F-0.032000000000000001
g11
tp5623
asg5238
(lp5624
(g5019
F0.0050000000000000001
g11
tp5625
a(g5062
F0.029999999999999999
g11
tp5626
assI686
g2
(g3
tRp5627
S'Disruptor'
p5628
(lp5629
(S'Gyrocopter'
p5630
F0.114
g11
tp5631
a(S'Tusk'
p5632
F0.044999999999999998
g11
tp5633
a(S'Queen of Pain'
p5634
F0.021000000000000001
g11
tp5635
a(S'Invoker'
p5636
F0.129
g11
tp5637
asS'Dazzle'
p5638
(lp5639
(S'Gyrocopter'
p5640
F0.087999999999999995
g11
tp5641
a(g5632
F0.039
g11
tp5642
a(S'Juggernaut'
p5643
F-0.017999999999999999
g11
tp5644
a(S'Slardar'
p5645
F-0.109
g11
tp5646
a(S'Windranger'
p5647
F-0.13300000000000001
g11
tp5648
a(S'Invoker'
p5649
F0.02
g11
tp5650
a(S'Vengeful Spirit'
p5651
F0.111
g11
tp5652
a(S'Clockwerk'
p5653
F-0.088999999999999996
g11
tp5654
a(S'Shadow Fiend'
p5655
F-0.094
g11
tp5656
a(S'Spirit Breaker'
p5657
F-0.033000000000000002
g11
tp5658
a(S'Earthshaker'
p5659
F-0.13100000000000001
g11
tp5660
a(g5634
F0.095000000000000001
g11
tp5661
a(S'Dark Seer'
p5662
F-0.053999999999999999
g11
tp5663
a(S'Ember Spirit'
p5664
F-0.017999999999999999
g11
tp5665
asS'Night Stalker'
p5666
(lp5667
(g5640
F0.059999999999999998
g11
tp5668
asS'Undying'
p5669
(lp5670
(g5630
F0.021000000000000001
g11
tp5671
a(g5634
F0.058999999999999997
g11
tp5672
a(g5632
F-0.017999999999999999
g11
tp5673
asS'Dragon Knight'
p5674
(lp5675
(g5640
F-0.025000000000000001
g11
tp5676
a(g5651
F0.053999999999999999
g11
tp5677
asS'Tiny'
p5678
(lp5679
(S'Bane'
p5680
F-0.051999999999999998
g11
tp5681
a(S'Io'
p5682
F0.17199999999999999
g11
tp5683
asS'Shadow Fiend'
p5684
(lp5685
(g5680
F0.19500000000000001
g44
tp5686
a(S'Dazzle'
p5687
F0.024
g11
tp5688
a(S'Vengeful Spirit'
p5689
F0.13300000000000001
g11
tp5690
a(g5659
F0.080000000000000002
g11
tp5691
asg5636
(lp5692
(g5632
F-0.001
g11
tp5693
a(g5638
F-0.087999999999999995
g11
tp5694
a(g5680
F0.058000000000000003
g11
tp5695
a(g5630
F0.012999999999999999
g11
tp5696
a(g5651
F0.062
g11
tp5697
a(S'Dark Seer'
p5698
F0.029000000000000001
g11
tp5699
a(g5659
F-0.126
g11
tp5700
a(S'Ancient Apparition'
p5701
F-0.14499999999999999
g11
tp5702
a(g5628
F-0.070000000000000007
g11
tp5703
asg5643
(lp5704
(g5687
F-0.023
g11
tp5705
a(g5689
F-0.010999999999999999
g11
tp5706
a(g5632
F0.056000000000000001
g11
tp5707
a(g5680
F0.13300000000000001
g11
tp5708
a(S'Slardar'
p5709
F-0.023
g11
tp5710
a(S'Queen of Pain'
p5711
F0.033000000000000002
g11
tp5712
a(g5659
F0.036999999999999998
g11
tp5713
asg5632
(lp5714
(g5630
F0.122
g44
tp5715
a(g5638
F0.021999999999999999
g11
tp5716
a(g5680
F0.112
g11
tp5717
a(g5634
F0.13200000000000001
g11
tp5718
a(g5636
F0.089999999999999997
g11
tp5719
a(g5698
F-0.099000000000000005
g11
tp5720
a(g5651
F0.106
g11
tp5721
a(g5643
F0.043999999999999997
g11
tp5722
a(S'Disruptor'
p5723
F-0.063
g11
tp5724
a(g5647
F-0.090999999999999998
g11
tp5725
a(g5664
F-0.090999999999999998
g11
tp5726
a(S'Lina'
p5727
F0.089999999999999997
g11
tp5728
a(S'Oracle'
p5729
F0.065000000000000002
g11
tp5730
a(S'Viper'
p5731
F-0.214
g44
tp5732
a(g5659
F-0.17799999999999999
g11
tp5733
a(S'Templar Assassin'
p5734
F0.13200000000000001
g11
tp5735
a(S'Undying'
p5736
F-0.112
g11
tp5737
asg5680
(lp5738
(g5640
F0.10000000000000001
g11
tp5739
a(g5632
F0.14399999999999999
g44
tp5740
a(g5689
F0.068000000000000005
g11
tp5741
a(g5711
F0.091999999999999998
g11
tp5742
a(g5709
F0.13100000000000001
g11
tp5743
a(g5649
F0.18099999999999999
g44
tp5744
a(g5684
F0.091999999999999998
g11
tp5745
a(g5678
F-0.048000000000000001
g11
tp5746
a(g5657
F0.012
g11
tp5747
a(g5662
F0.19400000000000001
g44
tp5748
a(S'Juggernaut'
p5749
F0.153
g11
tp5750
a(S'Lina'
p5751
F0.068000000000000005
g11
tp5752
a(S'Ancient Apparition'
p5753
F-0.10299999999999999
g11
tp5754
a(g5664
F0.017000000000000001
g11
tp5755
asS'Spirit Breaker'
p5756
(lp5757
(g5640
F-0.014999999999999999
g11
tp5758
a(g5651
F-0.024
g11
tp5759
a(g5680
F-0.037999999999999999
g11
tp5760
a(g5638
F-0.068000000000000005
g11
tp5761
a(g5634
F0.053999999999999999
g11
tp5762
a(g5698
F0.20699999999999999
g44
tp5763
asg5640
(lp5764
(g5680
F0.083000000000000004
g11
tp5765
a(g5638
F0.085999999999999993
g11
tp5766
a(g5632
F0.13700000000000001
g44
tp5767
a(g5698
F0.033000000000000002
g11
tp5768
a(g5647
F0.044999999999999998
g11
tp5769
a(g5659
F-0.19400000000000001
g44
tp5770
a(g5651
F0.074999999999999997
g11
tp5771
a(g5634
F0.121
g11
tp5772
a(g5756
F0.017999999999999999
g11
tp5773
a(g5669
F-0.058000000000000003
g11
tp5774
a(g5628
F0.021000000000000001
g11
tp5775
a(g5649
F0.11899999999999999
g11
tp5776
a(g5731
F-0.13100000000000001
g11
tp5777
a(S'Shadow Shaman'
p5778
F0.090999999999999998
g11
tp5779
a(g5645
F0.025000000000000001
g11
tp5780
a(g5727
F0.060999999999999999
g11
tp5781
a(S'Rubick'
p5782
F0.21299999999999999
g44
tp5783
a(g5734
F0.032000000000000001
g11
tp5784
a(g5666
F0.016
g11
tp5785
a(S'Witch Doctor'
p5786
F0.016
g11
tp5787
a(g5674
F-0.039
g11
tp5788
asg5647
(lp5789
(g5640
F0.17799999999999999
g44
tp5790
a(g5687
F-0.002
g11
tp5791
a(g5632
F0.057000000000000002
g11
tp5792
a(g5709
F-0.064000000000000001
g11
tp5793
a(g5651
F0.17999999999999999
g11
tp5794
asg5701
(lp5795
(g5649
F0.034000000000000002
g11
tp5796
a(g5680
F-0.047
g11
tp5797
asg5689
(lp5798
(g5643
F-0.052999999999999999
g11
tp5799
a(g5640
F0.029999999999999999
g11
tp5800
a(g5680
F0.0060000000000000001
g11
tp5801
a(g5632
F0.075999999999999998
g11
tp5802
a(g5711
F-0.036999999999999998
g11
tp5803
a(g5687
F0.064000000000000001
g11
tp5804
a(g5657
F-0.035999999999999997
g11
tp5805
a(g5662
F0.023
g11
tp5806
a(g5649
F0.123
g11
tp5807
a(S'Viper'
p5808
F-0.14599999999999999
g11
tp5809
a(g5655
F-0.032000000000000001
g11
tp5810
a(S'Windranger'
p5811
F0.002
g11
tp5812
a(S'Abaddon'
p5813
F0.002
g11
tp5814
a(g5709
F-0.048000000000000001
g11
tp5815
a(S'Dragon Knight'
p5816
F-0.0050000000000000001
g11
tp5817
asg5727
(lp5818
(g5632
F0.125
g11
tp5819
a(g5640
F0.081000000000000003
g11
tp5820
a(g5680
F0.070999999999999994
g11
tp5821
asg5778
(lp5822
(g5640
F0.111
g11
tp5823
a(g5711
F0.037999999999999999
g11
tp5824
asg5698
(lp5825
(g5640
F-0.010999999999999999
g11
tp5826
a(g5632
F-0.128
g11
tp5827
a(g5651
F0.024
g11
tp5828
a(g5680
F0.13300000000000001
g11
tp5829
a(g5649
F0.090999999999999998
g11
tp5830
a(g5664
F-0.047
g11
tp5831
a(g5638
F-0.10000000000000001
g11
tp5832
a(g5634
F-0.025999999999999999
g11
tp5833
a(g5657
F0.19600000000000001
g11
tp5834
asg5653
(lp5835
(g5638
F0.043999999999999997
g11
tp5836
asg5786
(lp5837
(g5640
F0.0040000000000000001
g11
tp5838
asg5729
(lp5839
(S'Tusk'
p5840
F0.13500000000000001
g11
tp5841
asg5659
(lp5842
(g5640
F-0.099000000000000005
g11
tp5843
a(g5711
F0.047
g11
tp5844
a(g5687
F-0.037999999999999999
g11
tp5845
a(g5649
F0.074999999999999997
g11
tp5846
a(g5632
F-0.068000000000000005
g11
tp5847
a(g5684
F0.055
g11
tp5848
a(g5749
F0.13500000000000001
g11
tp5849
asg5813
(lp5850
(g5651
F-0.060999999999999999
g11
tp5851
asg5664
(lp5852
(g5840
F0.017000000000000001
g11
tp5853
a(g5698
F0.089999999999999997
g11
tp5854
a(g5638
F0.072999999999999995
g11
tp5855
a(g5680
F0.092999999999999999
g11
tp5856
asg5645
(lp5857
(g5687
F-0.041000000000000002
g11
tp5858
a(g5680
F0.184
g44
tp5859
a(g5640
F0.095000000000000001
g11
tp5860
a(g5643
F0.050000000000000003
g11
tp5861
a(g5647
F-0.127
g11
tp5862
a(g5651
F0.067000000000000004
g11
tp5863
a(g5711
F0.10199999999999999
g11
tp5864
asg5634
(lp5865
(g5632
F0.125
g11
tp5866
a(g5680
F0.052999999999999999
g11
tp5867
a(g5640
F0.099000000000000005
g11
tp5868
a(g5651
F-0.014
g11
tp5869
a(g5659
F-0.070000000000000007
g11
tp5870
a(g5687
F0.070999999999999994
g11
tp5871
a(g5645
F0.01
g11
tp5872
a(g5628
F-0.094
g11
tp5873
a(g5657
F0.065000000000000002
g11
tp5874
a(g5669
F-0.042000000000000003
g11
tp5875
a(g5643
F0.014
g11
tp5876
a(g5778
F-0.0040000000000000001
g11
tp5877
a(g5662
F-0.0040000000000000001
g11
tp5878
asg5734
(lp5879
(g5640
F-0.001
g11
tp5880
a(g5632
F0.114
g11
tp5881
asg5682
(lp5882
(S'Tiny'
p5883
F0.079000000000000001
g11
tp5884
asg5782
(lp5885
(g5630
F0.14899999999999999
g11
tp5886
asg5731
(lp5887
(g5640
F-0.040000000000000001
g11
tp5888
a(g5651
F-0.01
g11
tp5889
a(g5632
F-0.108
g11
tp5890
ass.